-----BEGIN RSA PRIVATE KEY-----
MIICXAIBAAKBgQDcwk7AWztWAFvKTdO2X8PvY27QK+Uyk9lnkrQ8jnDttnyLx5GP
F6c6FQ6wV5o7XnbmfNhw8KxyT+6cCkKns9sxamiWSdp/RoWcM2uW6yj896zNivPI
+WvrAVvcgHTanjsDMC3UwqFDoOf+39DGYYnqSom/KdhFxpNH1EHgoyYYQwIDAQAB
AoGAZncd/HScFu/1qvHyyZyroiqB3cfyC0bKyyMx20W2Lu/b4TlRW5x79x6dAca3
hMT05UifYdSkBi8Jro2ooJR/sRPeRHkLFH/VqOA/Hcmb6xc2Z7nj7F+N4fRC3uZN
GFsakw0uZ5Uq8+1bWzvyHET+XC8vlcGg7LNWcyp1ZIhrkgkCQQD+znN/l0kP0U4B
frrNCSvvCeSuwslxOVvBsykG64krDBSV76PHN+uIsN4O4hpUwZ9hggmPHY4ZwP+w
xSBt3SnHAkEA3csHXmr9GK8QmcJkuaI/PMjsnG+xkGi+nI3R1mVz8/iFy1Y6lGXP
BiLGGYp2ok8UFc//UQjyqua+qLRhGCx9pQJAath1NAZjG5/fvt6+Q+XZp1WVr/Z7
899ia3nN9Vnk3ckmBK1FFu+K83l+0+zZr7q1M3UMvxdck84LKbuvWoJH1wJANxhw
RCwfozoZzZhUnSiIvPjMji/Q1Caw8wLn1XJuU3SxB8nr02FXBBcvTrjur3MlciWx
LtgiMAIR6qakV/T1YQJBAMNbj4cZtIGlW6IGNxnYZ50f9WvRljNNmWjro6HR5GO5
vm3Sme97Ly5/ge9/Y6ixXpTiO16NE2+CbnRKNTBjoC0=
-----END RSA PRIVATE KEY-----
Certificate:
    Data:
        Version: 3 (0x2)
        Serial Number: 3 (0x3)
    Signature Algorithm: sha256WithRSAEncryption
        Issuer: C=KR, CN=gilgil
        Validity
            Not Before: Mar  1 00:00:00 2014 GMT
            Not After : Feb 27 00:00:00 2024 GMT
        Subject: C=KR, CN=36fb61a9.akstat.io
        Subject Public Key Info:
            Public Key Algorithm: rsaEncryption
                Public-Key: (1024 bit)
                Modulus:
                    00:dc:c2:4e:c0:5b:3b:56:00:5b:ca:4d:d3:b6:5f:
                    c3:ef:63:6e:d0:2b:e5:32:93:d9:67:92:b4:3c:8e:
                    70:ed:b6:7c:8b:c7:91:8f:17:a7:3a:15:0e:b0:57:
                    9a:3b:5e:76:e6:7c:d8:70:f0:ac:72:4f:ee:9c:0a:
                    42:a7:b3:db:31:6a:68:96:49:da:7f:46:85:9c:33:
                    6b:96:eb:28:fc:f7:ac:cd:8a:f3:c8:f9:6b:eb:01:
                    5b:dc:80:74:da:9e:3b:03:30:2d:d4:c2:a1:43:a0:
                    e7:fe:df:d0:c6:61:89:ea:4a:89:bf:29:d8:45:c6:
                    93:47:d4:41:e0:a3:26:18:43
                Exponent: 65537 (0x10001)
        X509v3 extensions:
            X509v3 Basic Constraints: 
                CA:FALSE
            Netscape Comment: 
                OpenSSL Generated Certificate
            X509v3 Subject Key Identifier: 
                AF:32:6F:2B:EC:EF:65:D8:14:81:79:04:38:FD:4E:3F:A3:CC:CC:C9
            X509v3 Authority Key Identifier: 
                DirName:/C=KR/CN=gilgil
                serial:BC:FE:EF:E9:4A:BC:63:F0

    Signature Algorithm: sha256WithRSAEncryption
         7f:5f:6a:cd:2f:2a:b7:ba:d6:8f:7c:d9:3f:42:f8:5a:39:ee:
         92:05:80:41:87:26:de:8e:43:78:ff:e3:14:7a:d3:25:5e:27:
         f9:ee:47:ac:a5:59:34:6c:51:18:a7:ea:5f:41:18:64:fe:e0:
         ec:f2:e4:9b:ab:d2:53:35:12:ae:1f:63:5a:49:c6:cd:aa:98:
         23:61:e7:ec:59:3e:92:2e:49:8a:cb:02:5f:9f:3c:16:24:92:
         91:8e:32:68:78:1b:bb:d4:f7:38:a8:6d:d9:f5:8c:b4:b9:1e:
         a0:31:53:cf:b5:03:60:b6:23:54:d1:20:80:59:73:4b:b4:22:
         c0:6d
-----BEGIN CERTIFICATE-----
MIICWDCCAcGgAwIBAgIBAzANBgkqhkiG9w0BAQsFADAeMQswCQYDVQQGEwJLUjEP
MA0GA1UEAwwGZ2lsZ2lsMCIYDzIwMTQwMzAxMDAwMDAwWhgPMjAyNDAyMjcwMDAw
MDBaMCoxCzAJBgNVBAYTAktSMRswGQYDVQQDDBIzNmZiNjFhOS5ha3N0YXQuaW8w
gZ8wDQYJKoZIhvcNAQEBBQADgY0AMIGJAoGBANzCTsBbO1YAW8pN07Zfw+9jbtAr
5TKT2WeStDyOcO22fIvHkY8XpzoVDrBXmjteduZ82HDwrHJP7pwKQqez2zFqaJZJ
2n9GhZwza5brKPz3rM2K88j5a+sBW9yAdNqeOwMwLdTCoUOg5/7f0MZhiepKib8p
2EXGk0fUQeCjJhhDAgMBAAGjgZUwgZIwCQYDVR0TBAIwADAsBglghkgBhvhCAQ0E
HxYdT3BlblNTTCBHZW5lcmF0ZWQgQ2VydGlmaWNhdGUwHQYDVR0OBBYEFK8ybyvs
72XYFIF5BDj9Tj+jzMzJMDgGA1UdIwQxMC+hIqQgMB4xCzAJBgNVBAYTAktSMQ8w
DQYDVQQDDAZnaWxnaWyCCQC8/u/pSrxj8DANBgkqhkiG9w0BAQsFAAOBgQB/X2rN
Lyq3utaPfNk/QvhaOe6SBYBBhybejkN4/+MUetMlXif57kespVk0bFEYp+pfQRhk
/uDs8uSbq9JTNRKuH2NaScbNqpgjYefsWT6SLkmKywJfnzwWJJKRjjJoeBu71Pc4
qG3Z9Yy0uR6gMVPPtQNgtiNU0SCAWXNLtCLAbQ==
-----END CERTIFICATE-----
