-----BEGIN RSA PRIVATE KEY-----
MIICWwIBAAKBgQDfT+qPLLQWxbGw28vBV8A4hcIEWK5H0W3rdhyWnSkwAY6aRd3b
pPDZ3FEnVCFY8U74Ku8L0wtk7z05ky4rx7jL+GpqtgSIEgVEumnyLrsX+tfexzgC
LW1See9WCjRdjqP3+LOt1lv3IyqI9yRcAY9gWp1YiqodcG0xOTF3dO0zeQIDAQAB
AoGAIgJsyaNYRgOTvUisLmTr3G/ajYjn+f4WTH7veayzwiDqk+pCEJp9J+Da5y9z
6LTPfxIi190rZhLdczBMHtTK+tSWHJegNKVFipc2wgfaQYWWHVV4h3CmLTC7dI+j
FO2D4F/EJ7ogf1pIFaV06/icLiWgYC1Nda/y+BAOcrhtNBECQQD4/E8oDHDNdHMs
BXcbKutOQkB7TueTm7eeoGtvOSVOSnBqx2mBeS2GGWlLEVmF0upJGhYfsEKhLlbi
BVQRAecdAkEA5ZpzIEZQBCgs3zp2PSHmqDvF24V1+5NvvlWT2+hNWE+HgyMKOt9Q
C1HPycLLjka9YHjGLwTBdUdREV5+D9GjDQJAUA5QJUBaxLS8k1rugP27yt3ifcNR
ElTvJUHPSWPGavXkT3Duq4Ka8JMbF9fsQOsgCYEpu+aghdKwfNvZu94wwQJAJA27
tD62Q+DXIvp4JKNVJ+ey6wSrASUmr9maTTbOJmbenZ379kCovg5LtZ/r/Nxo0mRE
oo95nWPke/i9jNhbZQJAZKmTuWSEKftrptAjF2/MF8mRDXbGBtqbt0Jiy59TeVnv
6odp+lErCkgM/GT0eVSxQmRo5tfkkIbx1v4GQ3L8JQ==
-----END RSA PRIVATE KEY-----
Certificate:
    Data:
        Version: 3 (0x2)
        Serial Number: 27 (0x1b)
    Signature Algorithm: sha256WithRSAEncryption
        Issuer: C=KR, CN=gilgil
        Validity
            Not Before: Mar  1 00:00:00 2014 GMT
            Not After : Feb 27 00:00:00 2024 GMT
        Subject: C=KR, CN=a.collective-media.net
        Subject Public Key Info:
            Public Key Algorithm: rsaEncryption
                Public-Key: (1024 bit)
                Modulus:
                    00:df:4f:ea:8f:2c:b4:16:c5:b1:b0:db:cb:c1:57:
                    c0:38:85:c2:04:58:ae:47:d1:6d:eb:76:1c:96:9d:
                    29:30:01:8e:9a:45:dd:db:a4:f0:d9:dc:51:27:54:
                    21:58:f1:4e:f8:2a:ef:0b:d3:0b:64:ef:3d:39:93:
                    2e:2b:c7:b8:cb:f8:6a:6a:b6:04:88:12:05:44:ba:
                    69:f2:2e:bb:17:fa:d7:de:c7:38:02:2d:6d:52:79:
                    ef:56:0a:34:5d:8e:a3:f7:f8:b3:ad:d6:5b:f7:23:
                    2a:88:f7:24:5c:01:8f:60:5a:9d:58:8a:aa:1d:70:
                    6d:31:39:31:77:74:ed:33:79
                Exponent: 65537 (0x10001)
        X509v3 extensions:
            X509v3 Basic Constraints: 
                CA:FALSE
            Netscape Comment: 
                OpenSSL Generated Certificate
            X509v3 Subject Key Identifier: 
                DE:1B:58:61:0D:AB:E2:4F:15:71:F5:2F:C3:F9:4E:EB:87:8E:4D:4B
            X509v3 Authority Key Identifier: 
                DirName:/C=KR/CN=gilgil
                serial:BC:FE:EF:E9:4A:BC:63:F0

    Signature Algorithm: sha256WithRSAEncryption
         8d:c9:ab:8f:37:ee:22:ed:78:03:44:72:54:1a:97:16:1b:6e:
         a5:1d:72:59:d6:48:a3:4f:b4:d0:f0:5a:d8:6a:56:81:13:97:
         58:59:d7:46:90:4b:b1:81:01:b0:10:2f:26:14:b0:e3:8a:a5:
         c1:b2:c7:a5:6a:c9:bc:6b:08:d8:54:e9:54:23:4b:f5:b1:f9:
         45:bb:e9:34:a2:33:89:71:01:d3:ab:6d:8d:d2:d9:65:17:4b:
         94:3a:38:7d:74:49:a9:40:46:64:5c:6e:d3:65:90:a9:bb:48:
         ef:8d:52:d4:80:73:9d:06:62:07:be:da:ed:e0:d7:9c:25:c8:
         f4:dc
-----BEGIN CERTIFICATE-----
MIICXDCCAcWgAwIBAgIBGzANBgkqhkiG9w0BAQsFADAeMQswCQYDVQQGEwJLUjEP
MA0GA1UEAwwGZ2lsZ2lsMCIYDzIwMTQwMzAxMDAwMDAwWhgPMjAyNDAyMjcwMDAw
MDBaMC4xCzAJBgNVBAYTAktSMR8wHQYDVQQDDBZhLmNvbGxlY3RpdmUtbWVkaWEu
bmV0MIGfMA0GCSqGSIb3DQEBAQUAA4GNADCBiQKBgQDfT+qPLLQWxbGw28vBV8A4
hcIEWK5H0W3rdhyWnSkwAY6aRd3bpPDZ3FEnVCFY8U74Ku8L0wtk7z05ky4rx7jL
+GpqtgSIEgVEumnyLrsX+tfexzgCLW1See9WCjRdjqP3+LOt1lv3IyqI9yRcAY9g
Wp1YiqodcG0xOTF3dO0zeQIDAQABo4GVMIGSMAkGA1UdEwQCMAAwLAYJYIZIAYb4
QgENBB8WHU9wZW5TU0wgR2VuZXJhdGVkIENlcnRpZmljYXRlMB0GA1UdDgQWBBTe
G1hhDaviTxVx9S/D+U7rh45NSzA4BgNVHSMEMTAvoSKkIDAeMQswCQYDVQQGEwJL
UjEPMA0GA1UEAwwGZ2lsZ2lsggkAvP7v6Uq8Y/AwDQYJKoZIhvcNAQELBQADgYEA
jcmrjzfuIu14A0RyVBqXFhtupR1yWdZIo0+00PBa2GpWgROXWFnXRpBLsYEBsBAv
JhSw44qlwbLHpWrJvGsI2FTpVCNL9bH5RbvpNKIziXEB06ttjdLZZRdLlDo4fXRJ
qUBGZFxu02WQqbtI741S1IBznQZiB77a7eDXnCXI9Nw=
-----END CERTIFICATE-----
