-----BEGIN RSA PRIVATE KEY-----
MIICXAIBAAKBgQCkVXdZe+q38la1kMeW0KNDHoEm7QDgUjkdcM3y3EizNJqdr8Ut
DfwIdVesQYYCOweK3jcKAVIjhh1ScObGKPgxS2f0N/JpE5DU2ISkdWh/UFEcUhQf
Kd1b7859r1OXPQQcj/Rl1W2dYfLaFoY9l63TWXW5c09jo9FQkWP+TAR0awIDAQAB
AoGAbVtinO3VeKuQACtkZnxY6OV31MuK9bxBvdG/e4oT5w1uhtjdQeo4efh8a2j/
IKTflA3kWogefP1WrfHr4JqK7lHfguJ4G/c+FMa0MiNMul5vxLcqhleZDMck6xiP
etmqdqA/MAqGdMMLdkhfXkceSdrCwIdOnP6NpKdGsgOKv0ECQQDNPHqCqpSLDkMG
8/uTLRRjx3vtfPibNkm0iBce69rhs7Rdx18sfWaXfVcmc/5KVxVJUv8jDJxJM9jc
R0+njSnjAkEAzPsOQMejywQnhWQXE8f1M4ckhRdFWamO0GiY92ta6K2YtnlJYR9d
mBf100Z/aSi3Y3w8oz5Q2D1qn7PKW+Kx2QJBAI/Sf++tZicEOYhX1cZPYuiBVKEa
YIU0R/ZRIBK1KU/dRNoq6tEcl5Y1aasywdKKsAoQNWb0YVkTEjdbacB6tg0CQACM
7AzgfGAfMrv4+NbkwpPQ2RhCZ71F50xH+6EueKAHV1GmIbxRCT9PUSmwFseBhHyP
6NnHYRAzmgWzxedZRIECQFsiJx6/4e/Gj7Tk6kYK9X9XzJuyGxKHZAH2Slc85VbE
BD22NgWzAe6ogIkbCEXBZsd1epN5wajaClkscKAxDmk=
-----END RSA PRIVATE KEY-----
Certificate:
    Data:
        Version: 3 (0x2)
        Serial Number: 11 (0xb)
    Signature Algorithm: sha256WithRSAEncryption
        Issuer: C=KR, CN=gilgil
        Validity
            Not Before: Mar  1 00:00:00 2014 GMT
            Not After : Feb 27 00:00:00 2024 GMT
        Subject: C=KR, CN=aa.agkn.com
        Subject Public Key Info:
            Public Key Algorithm: rsaEncryption
                Public-Key: (1024 bit)
                Modulus:
                    00:a4:55:77:59:7b:ea:b7:f2:56:b5:90:c7:96:d0:
                    a3:43:1e:81:26:ed:00:e0:52:39:1d:70:cd:f2:dc:
                    48:b3:34:9a:9d:af:c5:2d:0d:fc:08:75:57:ac:41:
                    86:02:3b:07:8a:de:37:0a:01:52:23:86:1d:52:70:
                    e6:c6:28:f8:31:4b:67:f4:37:f2:69:13:90:d4:d8:
                    84:a4:75:68:7f:50:51:1c:52:14:1f:29:dd:5b:ef:
                    ce:7d:af:53:97:3d:04:1c:8f:f4:65:d5:6d:9d:61:
                    f2:da:16:86:3d:97:ad:d3:59:75:b9:73:4f:63:a3:
                    d1:50:91:63:fe:4c:04:74:6b
                Exponent: 65537 (0x10001)
        X509v3 extensions:
            X509v3 Basic Constraints: 
                CA:FALSE
            Netscape Comment: 
                OpenSSL Generated Certificate
            X509v3 Subject Key Identifier: 
                9B:37:A4:13:90:26:29:76:AE:72:84:8F:ED:AD:A3:5C:26:CE:6B:EB
            X509v3 Authority Key Identifier: 
                DirName:/C=KR/CN=gilgil
                serial:BC:FE:EF:E9:4A:BC:63:F0

    Signature Algorithm: sha256WithRSAEncryption
         10:d6:05:c7:ca:63:fc:06:65:63:cb:54:06:70:4f:50:ff:b6:
         47:58:3e:0e:21:eb:94:a3:11:2a:b2:a9:0a:18:80:e0:a9:a6:
         06:e9:08:2f:89:2d:f3:5b:c8:22:ae:3d:64:d8:84:f0:5b:ae:
         11:a5:d9:fe:1a:50:90:b8:70:c3:58:77:8b:c3:08:8d:08:0f:
         af:ce:1d:e9:a4:f1:ce:2d:11:07:44:be:29:3d:71:f7:50:d3:
         27:a6:56:33:47:3f:2d:44:d9:86:33:cd:67:a2:95:cb:a5:8b:
         33:41:a6:5e:d4:fc:1d:dc:5d:a9:57:f8:9b:a4:c5:b6:c1:88:
         df:7e
-----BEGIN CERTIFICATE-----
MIICUTCCAbqgAwIBAgIBCzANBgkqhkiG9w0BAQsFADAeMQswCQYDVQQGEwJLUjEP
MA0GA1UEAwwGZ2lsZ2lsMCIYDzIwMTQwMzAxMDAwMDAwWhgPMjAyNDAyMjcwMDAw
MDBaMCMxCzAJBgNVBAYTAktSMRQwEgYDVQQDDAthYS5hZ2tuLmNvbTCBnzANBgkq
hkiG9w0BAQEFAAOBjQAwgYkCgYEApFV3WXvqt/JWtZDHltCjQx6BJu0A4FI5HXDN
8txIszSana/FLQ38CHVXrEGGAjsHit43CgFSI4YdUnDmxij4MUtn9DfyaROQ1NiE
pHVof1BRHFIUHyndW+/Ofa9Tlz0EHI/0ZdVtnWHy2haGPZet01l1uXNPY6PRUJFj
/kwEdGsCAwEAAaOBlTCBkjAJBgNVHRMEAjAAMCwGCWCGSAGG+EIBDQQfFh1PcGVu
U1NMIEdlbmVyYXRlZCBDZXJ0aWZpY2F0ZTAdBgNVHQ4EFgQUmzekE5AmKXaucoSP
7a2jXCbOa+swOAYDVR0jBDEwL6EipCAwHjELMAkGA1UEBhMCS1IxDzANBgNVBAMM
BmdpbGdpbIIJALz+7+lKvGPwMA0GCSqGSIb3DQEBCwUAA4GBABDWBcfKY/wGZWPL
VAZwT1D/tkdYPg4h65SjESqyqQoYgOCppgbpCC+JLfNbyCKuPWTYhPBbrhGl2f4a
UJC4cMNYd4vDCI0ID6/OHemk8c4tEQdEvik9cfdQ0yemVjNHPy1E2YYzzWeilcul
izNBpl7U/B3cXalX+JukxbbBiN9+
-----END CERTIFICATE-----
