-----BEGIN RSA PRIVATE KEY-----
MIICXAIBAAKBgQDlhnlKpvyJsI0PKuERCJH6Iz76py7hyRhYX43ifSOFZjVIQKnU
CNCqp23yq81FR1x1TaLbwOgr0k5LmbFRTKZB7+QzBthYWiCuDObcVJcWlhJuydQ1
ZGZ4donwFgtLZr3xO+yxbZtNe0eivBc6Hlo9XSExV8DdPHSMaINcgF6TVQIDAQAB
AoGAWG9GnofWd6rJvtVToH9/1zPrWSI/Qwl7UtmGToTOweBOmUco6CR5Wbdm+oBN
d+r16dB+9lLOYcwHFMPj+SIiUDyk9zFVbZU8DW7j0fQDfHwdbnATnXdS7Ru5GfoE
pbXdCVny9+KqFyaHo7AN1o71yTstw9h529vDqCyYRlAPwYUCQQD429f7FGRbBdo7
SFjwe8fKpd7MyeVO3lZgvaDdu3UBLS2SkWRNDy2ub4v0VR5mo8o2wDCQ7ypbqdeT
f2PYoLErAkEA7ByacoKKzksB8Cm+LykUoCewHxV4MQXKukxwcRHDkzXVHqRzPYr7
AJd3P53y/pXfsKI9/7UoAjjwlYu2eDaNfwJBANWvYGuV/P4zrkoNO2FzyAB4ITHT
gvUP8TesXH9IwZU7B9C8y1Vn3R/VZGVu2WXk6nPM32b0FnkTA6sBTejrQnUCQHgx
r2Xvkl2lzVzGwyway4cj7QJF2aOLAUKJOww0MM01sEIjEQ8ZOuF4OZpG+7Yh8Xdn
gAw12iIXflGCh+b2Tl0CQHZoe+5XhGlvlrSl+HjCQvSOZMVta1WowN7rTJ7R3Ts4
padDL4iKywK4MilNvLHG2fGqHv0duNo0bZg1K+7lSDE=
-----END RSA PRIVATE KEY-----
Certificate:
    Data:
        Version: 3 (0x2)
        Serial Number: 7 (0x7)
    Signature Algorithm: sha256WithRSAEncryption
        Issuer: C=KR, CN=gilgil
        Validity
            Not Before: Mar  1 00:00:00 2014 GMT
            Not After : Feb 27 00:00:00 2024 GMT
        Subject: C=KR, CN=accounts.google.com
        Subject Public Key Info:
            Public Key Algorithm: rsaEncryption
                Public-Key: (1024 bit)
                Modulus:
                    00:e5:86:79:4a:a6:fc:89:b0:8d:0f:2a:e1:11:08:
                    91:fa:23:3e:fa:a7:2e:e1:c9:18:58:5f:8d:e2:7d:
                    23:85:66:35:48:40:a9:d4:08:d0:aa:a7:6d:f2:ab:
                    cd:45:47:5c:75:4d:a2:db:c0:e8:2b:d2:4e:4b:99:
                    b1:51:4c:a6:41:ef:e4:33:06:d8:58:5a:20:ae:0c:
                    e6:dc:54:97:16:96:12:6e:c9:d4:35:64:66:78:76:
                    89:f0:16:0b:4b:66:bd:f1:3b:ec:b1:6d:9b:4d:7b:
                    47:a2:bc:17:3a:1e:5a:3d:5d:21:31:57:c0:dd:3c:
                    74:8c:68:83:5c:80:5e:93:55
                Exponent: 65537 (0x10001)
        X509v3 extensions:
            X509v3 Basic Constraints: 
                CA:FALSE
            Netscape Comment: 
                OpenSSL Generated Certificate
            X509v3 Subject Key Identifier: 
                5C:4F:28:E3:2D:7D:10:1A:61:1E:39:EC:0D:96:C1:16:4C:B9:93:D1
            X509v3 Authority Key Identifier: 
                DirName:/C=KR/CN=gilgil
                serial:BC:FE:EF:E9:4A:BC:63:F0

    Signature Algorithm: sha256WithRSAEncryption
         42:1b:f6:07:08:b9:be:08:25:25:6c:eb:d5:4a:f0:4b:4f:5a:
         0a:cf:a4:ee:02:a9:ee:37:13:c7:87:60:f7:d8:a1:90:3b:c2:
         f6:56:9b:76:8d:0b:6c:35:0a:02:e2:94:2b:9e:2e:b7:de:97:
         24:f5:b0:37:ca:cc:63:6e:15:61:f1:d1:db:4d:b3:87:9e:f4:
         b1:f3:ec:60:74:54:db:da:ea:52:8b:69:24:30:ab:a1:1c:d3:
         42:e8:6e:37:43:c5:8d:d5:af:43:d5:3f:56:43:92:a1:16:2c:
         ee:c5:36:25:31:e5:ec:31:b9:e4:2a:87:97:0e:05:03:fe:1f:
         c1:75
-----BEGIN CERTIFICATE-----
MIICWTCCAcKgAwIBAgIBBzANBgkqhkiG9w0BAQsFADAeMQswCQYDVQQGEwJLUjEP
MA0GA1UEAwwGZ2lsZ2lsMCIYDzIwMTQwMzAxMDAwMDAwWhgPMjAyNDAyMjcwMDAw
MDBaMCsxCzAJBgNVBAYTAktSMRwwGgYDVQQDDBNhY2NvdW50cy5nb29nbGUuY29t
MIGfMA0GCSqGSIb3DQEBAQUAA4GNADCBiQKBgQDlhnlKpvyJsI0PKuERCJH6Iz76
py7hyRhYX43ifSOFZjVIQKnUCNCqp23yq81FR1x1TaLbwOgr0k5LmbFRTKZB7+Qz
BthYWiCuDObcVJcWlhJuydQ1ZGZ4donwFgtLZr3xO+yxbZtNe0eivBc6Hlo9XSEx
V8DdPHSMaINcgF6TVQIDAQABo4GVMIGSMAkGA1UdEwQCMAAwLAYJYIZIAYb4QgEN
BB8WHU9wZW5TU0wgR2VuZXJhdGVkIENlcnRpZmljYXRlMB0GA1UdDgQWBBRcTyjj
LX0QGmEeOewNlsEWTLmT0TA4BgNVHSMEMTAvoSKkIDAeMQswCQYDVQQGEwJLUjEP
MA0GA1UEAwwGZ2lsZ2lsggkAvP7v6Uq8Y/AwDQYJKoZIhvcNAQELBQADgYEAQhv2
Bwi5vgglJWzr1UrwS09aCs+k7gKp7jcTx4dg99ihkDvC9labdo0LbDUKAuKUK54u
t96XJPWwN8rMY24VYfHR202zh570sfPsYHRU29rqUotpJDCroRzTQuhuN0PFjdWv
Q9U/VkOSoRYs7sU2JTHl7DG55CqHlw4FA/4fwXU=
-----END CERTIFICATE-----
