-----BEGIN RSA PRIVATE KEY-----
MIICXAIBAAKBgQClLnARmzcu24PU0MehWC+2GMITkCipOs9S4D5VAVZR20GyI7lv
IJInMt3oW0Svp/POQSW+dKJaTKZjrHJ4gnOPxuGOGhcGN22w3XvvzxX5UJGhtxd/
Ck9JW9bzmjMjzcO6OvQ7u6a7cI3YwxeUPt/RchwH2ftZqgNj/3Q4MHY+owIDAQAB
AoGAYWy4UMoZjBuQ7+6MMA+RZHfJ0DwQn2++ZIU6fmyhevo1D1qevnqZeWE5HRjn
tCr9U8N8/Y5RS6013kgR5B4dBdcNNVZxtCera8/oC5t88W4Gk1zXQjpTuKGpyI0q
byrOnnmgPZZmq5o8O7SKo2268BT7hBzO8vWi7qyK5NJJFPECQQDbxw5bm4Ob3c22
wdAbleFAzaa+V+z571PKwSLogDEicOFl39xE/3/uGBJK2GdiiVpIWAE7XtnCW/Qt
nAzNvzofAkEAwGfWknJhQlQWGUiZFojzBSfbbJrA7hhi40JHmDv1nWP6fPN5yq6w
lR/WYsy4HEkg12FI9xlULUmaIUgnKmhy/QJBAIhITBf0PE0n4ktkraadbzufCrnX
jgSCKsR8tSfVbiJ8OtjQUyeaA/thg95TiPBqWciogcMOExxZpvWtYacn4GMCQC9Q
WZ+hqPEapGSLSboU6031Qywt0gu6y3Z/MgPpmridgVeAuA5zbtD9B0c8eHncMctF
DSBWhjCszM4qZBc1oDECQA5zCHRcItora0mQrezhLJBnq4NRAbtVStjQHZZYMiGf
zFCAcTpsEco0gcVVJBM5drp7Fbv3P7cuDgn8JQyryR8=
-----END RSA PRIVATE KEY-----
Certificate:
    Data:
        Version: 3 (0x2)
        Serial Number: 22 (0x16)
    Signature Algorithm: sha256WithRSAEncryption
        Issuer: C=KR, CN=gilgil
        Validity
            Not Before: Mar  1 00:00:00 2014 GMT
            Not After : Feb 27 00:00:00 2024 GMT
        Subject: C=KR, CN=analytics.twitter.com
        Subject Public Key Info:
            Public Key Algorithm: rsaEncryption
                Public-Key: (1024 bit)
                Modulus:
                    00:a5:2e:70:11:9b:37:2e:db:83:d4:d0:c7:a1:58:
                    2f:b6:18:c2:13:90:28:a9:3a:cf:52:e0:3e:55:01:
                    56:51:db:41:b2:23:b9:6f:20:92:27:32:dd:e8:5b:
                    44:af:a7:f3:ce:41:25:be:74:a2:5a:4c:a6:63:ac:
                    72:78:82:73:8f:c6:e1:8e:1a:17:06:37:6d:b0:dd:
                    7b:ef:cf:15:f9:50:91:a1:b7:17:7f:0a:4f:49:5b:
                    d6:f3:9a:33:23:cd:c3:ba:3a:f4:3b:bb:a6:bb:70:
                    8d:d8:c3:17:94:3e:df:d1:72:1c:07:d9:fb:59:aa:
                    03:63:ff:74:38:30:76:3e:a3
                Exponent: 65537 (0x10001)
        X509v3 extensions:
            X509v3 Basic Constraints: 
                CA:FALSE
            Netscape Comment: 
                OpenSSL Generated Certificate
            X509v3 Subject Key Identifier: 
                1D:74:BC:34:7B:2B:C5:EE:6E:01:CC:08:B1:08:E5:8C:4D:07:25:B4
            X509v3 Authority Key Identifier: 
                DirName:/C=KR/CN=gilgil
                serial:BC:FE:EF:E9:4A:BC:63:F0

    Signature Algorithm: sha256WithRSAEncryption
         5a:12:a3:4f:b6:47:33:b8:bd:fb:58:f8:7b:b0:c7:b4:c6:30:
         9d:c0:d3:e4:0a:81:7f:90:d5:a1:26:ac:49:40:89:0e:26:40:
         5c:d9:cb:82:75:ea:46:e1:52:9b:a2:a9:9c:5e:13:a8:48:29:
         ee:70:38:ac:2c:56:d3:c4:a6:4f:84:42:af:2d:c9:09:a2:b5:
         c0:97:84:30:5e:69:14:cf:db:e1:60:23:5b:71:a7:3c:7b:66:
         2f:d8:5e:90:47:7d:60:17:67:c9:f0:fc:4e:66:c6:cf:de:3e:
         70:66:8f:15:82:d3:ac:2e:4a:d1:5f:5a:a6:87:2b:d4:6a:13:
         f4:13
-----BEGIN CERTIFICATE-----
MIICWzCCAcSgAwIBAgIBFjANBgkqhkiG9w0BAQsFADAeMQswCQYDVQQGEwJLUjEP
MA0GA1UEAwwGZ2lsZ2lsMCIYDzIwMTQwMzAxMDAwMDAwWhgPMjAyNDAyMjcwMDAw
MDBaMC0xCzAJBgNVBAYTAktSMR4wHAYDVQQDDBVhbmFseXRpY3MudHdpdHRlci5j
b20wgZ8wDQYJKoZIhvcNAQEBBQADgY0AMIGJAoGBAKUucBGbNy7bg9TQx6FYL7YY
whOQKKk6z1LgPlUBVlHbQbIjuW8gkicy3ehbRK+n885BJb50olpMpmOscniCc4/G
4Y4aFwY3bbDde+/PFflQkaG3F38KT0lb1vOaMyPNw7o69Du7prtwjdjDF5Q+39Fy
HAfZ+1mqA2P/dDgwdj6jAgMBAAGjgZUwgZIwCQYDVR0TBAIwADAsBglghkgBhvhC
AQ0EHxYdT3BlblNTTCBHZW5lcmF0ZWQgQ2VydGlmaWNhdGUwHQYDVR0OBBYEFB10
vDR7K8XubgHMCLEI5YxNByW0MDgGA1UdIwQxMC+hIqQgMB4xCzAJBgNVBAYTAktS
MQ8wDQYDVQQDDAZnaWxnaWyCCQC8/u/pSrxj8DANBgkqhkiG9w0BAQsFAAOBgQBa
EqNPtkczuL37WPh7sMe0xjCdwNPkCoF/kNWhJqxJQIkOJkBc2cuCdepG4VKboqmc
XhOoSCnucDisLFbTxKZPhEKvLckJorXAl4QwXmkUz9vhYCNbcac8e2Yv2F6QR31g
F2fJ8PxOZsbP3j5wZo8VgtOsLkrRX1qmhyvUahP0Ew==
-----END CERTIFICATE-----
