-----BEGIN RSA PRIVATE KEY-----
MIICXQIBAAKBgQDArEinDybHSkg6cWXKbKxUFyx6PbaXQQ6R5KS+XLPOPDrC+1dq
mDBYb+Dt2vgz7QDq+xB2xzLDmSk1fk70rVj5XptN0ErJcumLb63NwCg8Ex5PtoS+
O9FXGYpAGmnMp4L4/7XzM1UAw3+k/gh8QGzpt54xkNJmyUkKSkU5aFx/yQIDAQAB
AoGBAKUbvlKy8Dc917GFdYZHJFIXXb0PX4Y0cOji965NwKPOB0kJm/qzmlJe5XDP
AX117yBur8gpob3uZVr692xDlIb21Ntz6N7Y4OzbROr/n7atSXSyjLoyPA/xuGt6
XabxEBGAIy2w6+hfE8mcequap7IlYgZMjaCTeFi74p54ZbfRAkEA+JfqeNB0bMCq
Msx2WKDla4v9kL27+sqfcjFAPsZj3IKvnlQzq+QkvktGwN122HHGxhRcG1gyr97b
jpXufPKppQJBAMZp2UfACy4sdsEmb23J3tNLXbibsApOlBvf/kghYJEGFQ8cMF2H
Zia5yqqjs8000YSP0gKad3wJ/MEvXcJRvFUCQQDXLehvm0CrwjmQrxrhrKPpa8uY
tiM4+pr5pVgO/nsCLL0HN6tiZqDHdzFPUGPHBvUgEA+KO9XkFevGiFFfJk1hAkBO
g+h1mitSdEnyGRGTMoU4u+Q0f3dkPMAjX7oyNPMPsIZ42kDRYhksTe1DJVCrbbFT
cc47NYD+1rzsfZ/um4WZAkBt/t5LxO/JsN4bX7J5UaqHz7jMHpHn8nV03Fo+6rS7
3zelAA49qdRFHIAqGgZWr9WxQvteO5gtW/ErVLFnIsL2
-----END RSA PRIVATE KEY-----
Certificate:
    Data:
        Version: 3 (0x2)
        Serial Number: 1 (0x1)
    Signature Algorithm: sha256WithRSAEncryption
        Issuer: C=KR, CN=gilgil
        Validity
            Not Before: Mar  1 00:00:00 2014 GMT
            Not After : Feb 27 00:00:00 2024 GMT
        Subject: C=KR, CN=api.onedrive.com
        Subject Public Key Info:
            Public Key Algorithm: rsaEncryption
                Public-Key: (1024 bit)
                Modulus:
                    00:c0:ac:48:a7:0f:26:c7:4a:48:3a:71:65:ca:6c:
                    ac:54:17:2c:7a:3d:b6:97:41:0e:91:e4:a4:be:5c:
                    b3:ce:3c:3a:c2:fb:57:6a:98:30:58:6f:e0:ed:da:
                    f8:33:ed:00:ea:fb:10:76:c7:32:c3:99:29:35:7e:
                    4e:f4:ad:58:f9:5e:9b:4d:d0:4a:c9:72:e9:8b:6f:
                    ad:cd:c0:28:3c:13:1e:4f:b6:84:be:3b:d1:57:19:
                    8a:40:1a:69:cc:a7:82:f8:ff:b5:f3:33:55:00:c3:
                    7f:a4:fe:08:7c:40:6c:e9:b7:9e:31:90:d2:66:c9:
                    49:0a:4a:45:39:68:5c:7f:c9
                Exponent: 65537 (0x10001)
        X509v3 extensions:
            X509v3 Basic Constraints: 
                CA:FALSE
            Netscape Comment: 
                OpenSSL Generated Certificate
            X509v3 Subject Key Identifier: 
                F1:EF:50:62:3D:48:11:D7:E3:13:53:F1:7D:2C:FC:19:3E:CB:62:E9
            X509v3 Authority Key Identifier: 
                DirName:/C=KR/CN=gilgil
                serial:BC:FE:EF:E9:4A:BC:63:F0

    Signature Algorithm: sha256WithRSAEncryption
         13:f4:34:92:41:96:69:01:65:e0:29:c8:99:72:c9:9d:fa:ce:
         70:0b:9b:9c:25:d7:7e:80:80:8d:0f:80:8d:12:fa:19:e5:72:
         35:46:c4:ad:9e:9b:aa:6a:ae:c5:66:5c:82:bc:de:a6:d8:ac:
         dc:b9:67:bb:3f:18:d0:94:00:b7:03:9a:4d:a6:bd:59:4e:94:
         d1:3b:8f:33:5a:40:26:07:c0:c6:05:e0:ed:67:f6:06:90:96:
         5c:ee:0a:f5:13:a8:7f:f1:60:6a:c9:4f:01:cf:32:15:3b:17:
         95:75:f3:ab:e3:1b:31:f9:51:e5:82:2a:ea:0c:25:18:15:2c:
         b5:dc
-----BEGIN CERTIFICATE-----
MIICVjCCAb+gAwIBAgIBATANBgkqhkiG9w0BAQsFADAeMQswCQYDVQQGEwJLUjEP
MA0GA1UEAwwGZ2lsZ2lsMCIYDzIwMTQwMzAxMDAwMDAwWhgPMjAyNDAyMjcwMDAw
MDBaMCgxCzAJBgNVBAYTAktSMRkwFwYDVQQDDBBhcGkub25lZHJpdmUuY29tMIGf
MA0GCSqGSIb3DQEBAQUAA4GNADCBiQKBgQDArEinDybHSkg6cWXKbKxUFyx6PbaX
QQ6R5KS+XLPOPDrC+1dqmDBYb+Dt2vgz7QDq+xB2xzLDmSk1fk70rVj5XptN0ErJ
cumLb63NwCg8Ex5PtoS+O9FXGYpAGmnMp4L4/7XzM1UAw3+k/gh8QGzpt54xkNJm
yUkKSkU5aFx/yQIDAQABo4GVMIGSMAkGA1UdEwQCMAAwLAYJYIZIAYb4QgENBB8W
HU9wZW5TU0wgR2VuZXJhdGVkIENlcnRpZmljYXRlMB0GA1UdDgQWBBTx71BiPUgR
1+MTU/F9LPwZPsti6TA4BgNVHSMEMTAvoSKkIDAeMQswCQYDVQQGEwJLUjEPMA0G
A1UEAwwGZ2lsZ2lsggkAvP7v6Uq8Y/AwDQYJKoZIhvcNAQELBQADgYEAE/Q0kkGW
aQFl4CnImXLJnfrOcAubnCXXfoCAjQ+AjRL6GeVyNUbErZ6bqmquxWZcgrzeptis
3Llnuz8Y0JQAtwOaTaa9WU6U0TuPM1pAJgfAxgXg7Wf2BpCWXO4K9ROof/FgaslP
Ac8yFTsXlXXzq+MbMflR5YIq6gwlGBUstdw=
-----END CERTIFICATE-----
