-----BEGIN RSA PRIVATE KEY-----
MIICXQIBAAKBgQDQo6mq/u0+Yyqs+sBfLqAMulLFShr1im1J/Itn2f5PtcGr4SyF
k6pNlhR/St428TljF/LVb7JazcjFtl6alPm4SDt6VjALslUjUmij0GL4jRTj7Zsr
hhuScWZEQOCp6eP80rDepWr3alaAOudYcicgyJxbIdl4ML2esRmYGNGxlQIDAQAB
AoGBAJPhrT0afCYgO/tnsDrG3YKn/ksAf6NSfqxWaKkvhmYROjkN3XTAeZGMsvKW
qnLfAAIQ03odNZnPCmO5I80FkwmW9IxB+D+tE/RVrjB/NhIJJoe6n7+/3ivS2j2v
KUfpghihL9zvY3+jbsVU5eOG7ST+NsA501E9oSwqkW6cPk1xAkEA+XuExmjyqr/H
XFB5YJ+WMGYVQvhS/DSeVM/hm9tmb27dFLlUg/R9ymqLzjRqpCMTkcylu8x5VFWB
bG9uM0KABwJBANYW/oq0as54ArHxEb1BtogEzA8YPZHT18d2ko+ksVqGv2P6xLTZ
LDBolr0CrsaVTTvy90knO73zRRTiz5gc4oMCQDgedtGCzgNmvFuhpov7mfctH18/
KLuewnblhCRhB/vM/mIpBj/ggWNE8EnkNJDTaxWC6U0DQ8+apFBWCH3zWYUCQAYW
0VaQmxkUQL9e4+pGHDLyL/ud7OJg7Bo4PSLoxEKW4oqtbzrVknQuBVuK3/218WRr
HK1v+DsG2Egny0/AQpECQQCAWrspO4mhQmLDcta4APcLeBQiOBZCN/bX8upZDQJg
dypdAHTIKEPACRl675ISWCJlJ4y4AB5IVuEdSN+vVLD+
-----END RSA PRIVATE KEY-----
Certificate:
    Data:
        Version: 3 (0x2)
        Serial Number: 2 (0x2)
    Signature Algorithm: sha256WithRSAEncryption
        Issuer: C=KR, CN=gilgil
        Validity
            Not Before: Mar  1 00:00:00 2014 GMT
            Not After : Feb 27 00:00:00 2024 GMT
        Subject: C=KR, CN=api.bing.com
        Subject Public Key Info:
            Public Key Algorithm: rsaEncryption
                Public-Key: (1024 bit)
                Modulus:
                    00:d0:a3:a9:aa:fe:ed:3e:63:2a:ac:fa:c0:5f:2e:
                    a0:0c:ba:52:c5:4a:1a:f5:8a:6d:49:fc:8b:67:d9:
                    fe:4f:b5:c1:ab:e1:2c:85:93:aa:4d:96:14:7f:4a:
                    de:36:f1:39:63:17:f2:d5:6f:b2:5a:cd:c8:c5:b6:
                    5e:9a:94:f9:b8:48:3b:7a:56:30:0b:b2:55:23:52:
                    68:a3:d0:62:f8:8d:14:e3:ed:9b:2b:86:1b:92:71:
                    66:44:40:e0:a9:e9:e3:fc:d2:b0:de:a5:6a:f7:6a:
                    56:80:3a:e7:58:72:27:20:c8:9c:5b:21:d9:78:30:
                    bd:9e:b1:19:98:18:d1:b1:95
                Exponent: 65537 (0x10001)
        X509v3 extensions:
            X509v3 Basic Constraints: 
                CA:FALSE
            Netscape Comment: 
                OpenSSL Generated Certificate
            X509v3 Subject Key Identifier: 
                2D:5E:05:2B:F1:72:C3:8F:74:67:EC:EC:E8:42:B7:8F:30:E9:FF:4F
            X509v3 Authority Key Identifier: 
                DirName:/C=KR/CN=gilgil
                serial:BC:FE:EF:E9:4A:BC:63:F0

    Signature Algorithm: sha256WithRSAEncryption
         b0:9e:48:5e:33:17:b3:1e:3e:b3:fd:9f:76:69:a1:c0:2f:41:
         70:2d:86:48:0f:14:d9:f2:d0:31:96:d0:c4:f7:33:c5:76:84:
         eb:fd:6f:b4:4a:04:17:e1:c0:23:d7:bd:2e:93:a2:46:5e:6d:
         9a:4c:2d:e1:36:69:8b:af:24:04:60:0d:6c:d9:50:b6:5c:cc:
         35:d5:ac:98:c4:b7:a3:23:62:c7:6c:bd:48:d3:85:e3:a4:15:
         d1:51:9c:8b:16:ef:39:41:22:5e:34:13:22:e1:e6:11:6b:71:
         4c:3d:75:28:f1:99:d9:2a:28:6c:e8:cc:91:bb:fb:dc:0a:d8:
         3b:6a
-----BEGIN CERTIFICATE-----
MIICUjCCAbugAwIBAgIBAjANBgkqhkiG9w0BAQsFADAeMQswCQYDVQQGEwJLUjEP
MA0GA1UEAwwGZ2lsZ2lsMCIYDzIwMTQwMzAxMDAwMDAwWhgPMjAyNDAyMjcwMDAw
MDBaMCQxCzAJBgNVBAYTAktSMRUwEwYDVQQDDAxhcGkuYmluZy5jb20wgZ8wDQYJ
KoZIhvcNAQEBBQADgY0AMIGJAoGBANCjqar+7T5jKqz6wF8uoAy6UsVKGvWKbUn8
i2fZ/k+1wavhLIWTqk2WFH9K3jbxOWMX8tVvslrNyMW2XpqU+bhIO3pWMAuyVSNS
aKPQYviNFOPtmyuGG5JxZkRA4Knp4/zSsN6lavdqVoA651hyJyDInFsh2XgwvZ6x
GZgY0bGVAgMBAAGjgZUwgZIwCQYDVR0TBAIwADAsBglghkgBhvhCAQ0EHxYdT3Bl
blNTTCBHZW5lcmF0ZWQgQ2VydGlmaWNhdGUwHQYDVR0OBBYEFC1eBSvxcsOPdGfs
7OhCt48w6f9PMDgGA1UdIwQxMC+hIqQgMB4xCzAJBgNVBAYTAktSMQ8wDQYDVQQD
DAZnaWxnaWyCCQC8/u/pSrxj8DANBgkqhkiG9w0BAQsFAAOBgQCwnkheMxezHj6z
/Z92aaHAL0FwLYZIDxTZ8tAxltDE9zPFdoTr/W+0SgQX4cAj170uk6JGXm2aTC3h
NmmLryQEYA1s2VC2XMw11ayYxLejI2LHbL1I04XjpBXRUZyLFu85QSJeNBMi4eYR
a3FMPXUo8ZnZKihs6MyRu/vcCtg7ag==
-----END CERTIFICATE-----
