-----BEGIN RSA PRIVATE KEY-----
MIICXAIBAAKBgQDXG8CMEEbx8N6X8ZApgIANUJ5JXBbJHQWCF205YDGnI8JN7keM
D6nDa7JJWPox+PRgKC3EJAxT04RdOb1QRq1tErpksIKGVtB/3Rqz9CgahbCeDf9d
22Bzbw3Hh45eaPBKcpmXpwdFJnPo+Ce9VnEacWHrv1XxlnvNnnfJLkZoRQIDAQAB
AoGATOSjwK203pmOyFvWf69qltfhrTGZB40zQdyj86WaOjgDJh5uPvf+ZFfkJGoF
DcYDfTf/nCSSr4hlwXl5Xe/V4AZy1yO7/QmF2iOUQupnlzc/uigybmu1FraXz17W
maRqBGY0RN/qTVbl3ZWHJfJYENl/DTaur1ExgGizN4OafQECQQD69A9X12z9EkJi
nLN5fLABh1Bt57C/CpvTSf5KQj5PeRvB3zazVoRpulKEVupoG2OmefOn5Jt9qK2E
CqnwqhGFAkEA228oZR/XNhwLyUDxtXGD2+kIpsNGoWfV13efEuYUHJ3Na/QefQxH
g/yffwIq6hKr2+CxzCcmK4YUWpjUdx9XwQJBAJ0N1vhbiwsKvV8nwK68WQ5r1+sg
gB3fjsv519ozgPmNytBXWM19zNq6T+Ag4QyMb54FXnbpfGJ1CTrEzbwfQ10CQFNN
79f0Lo+sNg1BSoHHhneGEHK+z6GW+efC0fEqx5fVkJbbJnfyoXPKBAMDn6cdT4E5
3EXU1vjO/gsm2gIfNAECQETI9DvqeRvrLYhS4ReGqp0kAptXfmfTRUUxc4e4l0fA
wujExlvQRcuigjQULOI5Xw1O7vzsU6YZDCzP0C06p0s=
-----END RSA PRIVATE KEY-----
Certificate:
    Data:
        Version: 3 (0x2)
        Serial Number: 3 (0x3)
    Signature Algorithm: sha256WithRSAEncryption
        Issuer: C=KR, CN=gilgil
        Validity
            Not Before: Mar  1 00:00:00 2014 GMT
            Not After : Feb 27 00:00:00 2024 GMT
        Subject: C=KR, CN=api.bing.com
        Subject Public Key Info:
            Public Key Algorithm: rsaEncryption
                Public-Key: (1024 bit)
                Modulus:
                    00:d7:1b:c0:8c:10:46:f1:f0:de:97:f1:90:29:80:
                    80:0d:50:9e:49:5c:16:c9:1d:05:82:17:6d:39:60:
                    31:a7:23:c2:4d:ee:47:8c:0f:a9:c3:6b:b2:49:58:
                    fa:31:f8:f4:60:28:2d:c4:24:0c:53:d3:84:5d:39:
                    bd:50:46:ad:6d:12:ba:64:b0:82:86:56:d0:7f:dd:
                    1a:b3:f4:28:1a:85:b0:9e:0d:ff:5d:db:60:73:6f:
                    0d:c7:87:8e:5e:68:f0:4a:72:99:97:a7:07:45:26:
                    73:e8:f8:27:bd:56:71:1a:71:61:eb:bf:55:f1:96:
                    7b:cd:9e:77:c9:2e:46:68:45
                Exponent: 65537 (0x10001)
        X509v3 extensions:
            X509v3 Basic Constraints: 
                CA:FALSE
            Netscape Comment: 
                OpenSSL Generated Certificate
            X509v3 Subject Key Identifier: 
                F1:D6:0E:BE:50:E0:5A:B0:80:F4:E7:BE:4D:C4:55:B2:27:5F:A1:3D
            X509v3 Authority Key Identifier: 
                DirName:/C=KR/CN=gilgil
                serial:BC:FE:EF:E9:4A:BC:63:F0

    Signature Algorithm: sha256WithRSAEncryption
         50:86:a6:8f:c7:e8:a1:94:e4:35:e4:8f:da:27:80:74:4c:e1:
         16:a3:2a:ef:0f:b5:66:ce:45:b2:ce:4f:e5:c0:10:76:f9:25:
         10:f5:6b:86:d9:82:9e:c3:42:6f:73:fa:07:ff:8f:42:f8:f6:
         7e:05:f9:00:8d:73:d5:d2:a7:34:f1:ba:d3:3f:28:0e:a9:aa:
         74:ed:c6:1c:64:af:c9:2a:59:f5:85:f6:e2:b0:6a:0d:00:97:
         74:ac:eb:72:06:68:5b:3d:16:d7:ac:0a:60:ee:76:cc:e6:70:
         69:a1:09:0b:b8:60:26:f4:84:fa:c2:2d:4b:0d:db:70:08:9b:
         6f:55
-----BEGIN CERTIFICATE-----
MIICUjCCAbugAwIBAgIBAzANBgkqhkiG9w0BAQsFADAeMQswCQYDVQQGEwJLUjEP
MA0GA1UEAwwGZ2lsZ2lsMCIYDzIwMTQwMzAxMDAwMDAwWhgPMjAyNDAyMjcwMDAw
MDBaMCQxCzAJBgNVBAYTAktSMRUwEwYDVQQDDAxhcGkuYmluZy5jb20wgZ8wDQYJ
KoZIhvcNAQEBBQADgY0AMIGJAoGBANcbwIwQRvHw3pfxkCmAgA1QnklcFskdBYIX
bTlgMacjwk3uR4wPqcNrsklY+jH49GAoLcQkDFPThF05vVBGrW0SumSwgoZW0H/d
GrP0KBqFsJ4N/13bYHNvDceHjl5o8EpymZenB0Umc+j4J71WcRpxYeu/VfGWe82e
d8kuRmhFAgMBAAGjgZUwgZIwCQYDVR0TBAIwADAsBglghkgBhvhCAQ0EHxYdT3Bl
blNTTCBHZW5lcmF0ZWQgQ2VydGlmaWNhdGUwHQYDVR0OBBYEFPHWDr5Q4FqwgPTn
vk3EVbInX6E9MDgGA1UdIwQxMC+hIqQgMB4xCzAJBgNVBAYTAktSMQ8wDQYDVQQD
DAZnaWxnaWyCCQC8/u/pSrxj8DANBgkqhkiG9w0BAQsFAAOBgQBQhqaPx+ihlOQ1
5I/aJ4B0TOEWoyrvD7VmzkWyzk/lwBB2+SUQ9WuG2YKew0Jvc/oH/49C+PZ+BfkA
jXPV0qc08brTPygOqap07cYcZK/JKln1hfbisGoNAJd0rOtyBmhbPRbXrApg7nbM
5nBpoQkLuGAm9IT6wi1LDdtwCJtvVQ==
-----END CERTIFICATE-----
