-----BEGIN RSA PRIVATE KEY-----
MIICWwIBAAKBgQClHIow76Wskcbj9Wd4BQhQUaSkO6rShOjaPtGo+jIBJIpiwUZY
EnXuUZwsZ+IbBqKc5uXsGV0k8aA+Himi54cDTzOabjKxRmVaQW69Z6Ythnk/kO/Q
f0GKhfePvogYhdjOdpRAjfNTqCcshUeXQPN+z9d5u7N6s64lJ4hBwdVzJwIDAQAB
AoGALfksYUPZFZvhjUefb8O29OZGuZQDlGp9i4dCSZKgqcDK54R5WbyKKbl/ir3C
L1RBov6Htp25WbgNrj4nybw90zOK/SxGCiNdDoyXZEiQi/1v4BLK94X7LmX0B8QB
Avg/tR2eJxVX7OOnRRsFdX3S+tP+ydZv83VRF4k8W23wckECQQDS5tgEJh7DrOtN
To2ysQanOp4yeN15gaEjvWu0nxj0ZZZtMbJnTbulfGpwHrphwxyPm+dvRkjJm76t
ptU9V2l1AkEAyGsNSHJjd0i8e4F6kN0SBniwXt70lJUXC8ZZkpjhIsCVVqqnd1rt
tH7db1uVjwySoxYBHCRUhRyoUsT2wSe6qwJAakrZ+E1WF/ygotfCZpr95W6PqJRt
2v1QP3kKPYApzZMdm27+oT32ItNvuY5jFT6GuII0xEpCCQorsc1xj3bsuQJASb7y
dUz6AqN2D3AWXIWsI0t3goFBuAagI0oKHaI5fWMl0G0dEBMaUoc4DcjCYI+8yVvI
bsWDgDOKUGJ/dZWb3wJAeSupYpqg879RoVzNaBmq2PAOQZYRpLKNDMXscXXqP0AD
wZ2YXaNlbPEtsVngq5MakI0TyF1+taLwxoZMprhhxw==
-----END RSA PRIVATE KEY-----
Certificate:
    Data:
        Version: 3 (0x2)
        Serial Number: 3 (0x3)
    Signature Algorithm: sha256WithRSAEncryption
        Issuer: C=KR, CN=gilgil
        Validity
            Not Before: Mar  1 00:00:00 2014 GMT
            Not After : Feb 27 00:00:00 2024 GMT
        Subject: C=KR, CN=assets.onestore.ms
        Subject Public Key Info:
            Public Key Algorithm: rsaEncryption
                Public-Key: (1024 bit)
                Modulus:
                    00:a5:1c:8a:30:ef:a5:ac:91:c6:e3:f5:67:78:05:
                    08:50:51:a4:a4:3b:aa:d2:84:e8:da:3e:d1:a8:fa:
                    32:01:24:8a:62:c1:46:58:12:75:ee:51:9c:2c:67:
                    e2:1b:06:a2:9c:e6:e5:ec:19:5d:24:f1:a0:3e:1e:
                    29:a2:e7:87:03:4f:33:9a:6e:32:b1:46:65:5a:41:
                    6e:bd:67:a6:2d:86:79:3f:90:ef:d0:7f:41:8a:85:
                    f7:8f:be:88:18:85:d8:ce:76:94:40:8d:f3:53:a8:
                    27:2c:85:47:97:40:f3:7e:cf:d7:79:bb:b3:7a:b3:
                    ae:25:27:88:41:c1:d5:73:27
                Exponent: 65537 (0x10001)
        X509v3 extensions:
            X509v3 Basic Constraints: 
                CA:FALSE
            Netscape Comment: 
                OpenSSL Generated Certificate
            X509v3 Subject Key Identifier: 
                3F:65:6D:41:9B:CB:C1:C1:7F:CE:CE:68:39:04:9E:F4:30:FF:BD:45
            X509v3 Authority Key Identifier: 
                DirName:/C=KR/CN=gilgil
                serial:BC:FE:EF:E9:4A:BC:63:F0

    Signature Algorithm: sha256WithRSAEncryption
         0b:50:25:17:e7:98:9a:b2:59:63:b1:04:6b:f5:00:d4:c3:2a:
         0e:54:7c:cc:eb:41:bf:f6:60:04:63:db:2e:6e:c5:f3:e2:2c:
         03:41:26:8b:fc:9a:40:57:92:b1:54:43:d7:44:d0:9b:88:14:
         80:c0:8a:90:c4:1c:37:e3:d5:a6:9c:b9:2b:f6:3b:6d:7f:a8:
         8c:9c:47:ff:0c:ca:ad:96:a9:f4:cc:c7:ae:c1:24:28:29:5a:
         31:eb:59:cf:89:65:77:02:84:25:79:15:7f:ed:65:5e:bc:c0:
         ff:f6:86:4d:1c:cd:52:83:74:8c:b6:f9:02:ec:7f:ff:ea:4f:
         ee:76
-----BEGIN CERTIFICATE-----
MIICWDCCAcGgAwIBAgIBAzANBgkqhkiG9w0BAQsFADAeMQswCQYDVQQGEwJLUjEP
MA0GA1UEAwwGZ2lsZ2lsMCIYDzIwMTQwMzAxMDAwMDAwWhgPMjAyNDAyMjcwMDAw
MDBaMCoxCzAJBgNVBAYTAktSMRswGQYDVQQDDBJhc3NldHMub25lc3RvcmUubXMw
gZ8wDQYJKoZIhvcNAQEBBQADgY0AMIGJAoGBAKUcijDvpayRxuP1Z3gFCFBRpKQ7
qtKE6No+0aj6MgEkimLBRlgSde5RnCxn4hsGopzm5ewZXSTxoD4eKaLnhwNPM5pu
MrFGZVpBbr1npi2GeT+Q79B/QYqF94++iBiF2M52lECN81OoJyyFR5dA837P13m7
s3qzriUniEHB1XMnAgMBAAGjgZUwgZIwCQYDVR0TBAIwADAsBglghkgBhvhCAQ0E
HxYdT3BlblNTTCBHZW5lcmF0ZWQgQ2VydGlmaWNhdGUwHQYDVR0OBBYEFD9lbUGb
y8HBf87OaDkEnvQw/71FMDgGA1UdIwQxMC+hIqQgMB4xCzAJBgNVBAYTAktSMQ8w
DQYDVQQDDAZnaWxnaWyCCQC8/u/pSrxj8DANBgkqhkiG9w0BAQsFAAOBgQALUCUX
55iaslljsQRr9QDUwyoOVHzM60G/9mAEY9subsXz4iwDQSaL/JpAV5KxVEPXRNCb
iBSAwIqQxBw349WmnLkr9jttf6iMnEf/DMqtlqn0zMeuwSQoKVox61nPiWV3AoQl
eRV/7WVevMD/9oZNHM1Sg3SMtvkC7H//6k/udg==
-----END CERTIFICATE-----
