-----BEGIN RSA PRIVATE KEY-----
MIICXQIBAAKBgQDf+UyAA7gLyu0nyz2UqlBkutq/fvo+6yYAQInIYARjqMpjhyWJ
M+8i0lZtuNhaeYsx5+e82bfQLB+AS7PuYyh/eHTwOapCxkSxHP1c9r4AeqLS8TKt
tAK4dp+YV/lQFrm4rqPATyMtHpPnzckt9eZI6Uqtmeot7hBufMZ/tD8stQIDAQAB
AoGBAIh1QleobGS68TzShiVikvKcKZSMj3jwGcoDiC7N2T7C4vQ6rfLm8ma70i6t
dRvCe70fNsCHwYcSquqmtOyj+1Jy0CIupH+eacZ6y85XtFefb/XPLFxyUBj3Yn9G
LhLEkiwwrSAHYGG2JMSWdoBjWVNeo1SxhwAfY0olAAXr77YBAkEA8EP2/6VUSzdV
j/cWDot4gYwYa4ikhkV1iPPk5k95Jt4mWppwwF+1kwlIUV3j5UxcnYLek+awO5/E
Dl0B//znNQJBAO6kNI8ZrvuhP+a+WMj7fmb4Pawmj2Pi5p7kH4+o+XH9Z+5Hgmwe
xvwxWke0Q7ze1zwgNoyIY2oPM/QbhdI6X4ECQHJoeqo7KMt0OusFxlwAr85ITqyN
8YH6e0BOmvXMbC1E5VCJcB06tfShG+2a3tUmKofadHBLDiomJq6MPVKPM+0CQCde
t70UA6ZHx/8NUCB4PTZHpgUMp4NXH6z+/aX5vo1rvQW2jnG/8hwRGE/UEYjLSr8E
oXs11RDeSTfwgndYYgECQQCZCUeWeLrXYWhvIUfVK/JnOSva0rFurElt62Ej6YPw
L9VU3YuC3A1hzQw4ZN2c5GbGMulBJ0pDi91Y2YtuW91h
-----END RSA PRIVATE KEY-----
Certificate:
    Data:
        Version: 3 (0x2)
        Serial Number: 7 (0x7)
    Signature Algorithm: sha256WithRSAEncryption
        Issuer: C=KR, CN=gilgil
        Validity
            Not Before: Mar  1 00:00:00 2014 GMT
            Not After : Feb 27 00:00:00 2024 GMT
        Subject: C=KR, CN=az667904.vo.msecnd.net
        Subject Public Key Info:
            Public Key Algorithm: rsaEncryption
                Public-Key: (1024 bit)
                Modulus:
                    00:df:f9:4c:80:03:b8:0b:ca:ed:27:cb:3d:94:aa:
                    50:64:ba:da:bf:7e:fa:3e:eb:26:00:40:89:c8:60:
                    04:63:a8:ca:63:87:25:89:33:ef:22:d2:56:6d:b8:
                    d8:5a:79:8b:31:e7:e7:bc:d9:b7:d0:2c:1f:80:4b:
                    b3:ee:63:28:7f:78:74:f0:39:aa:42:c6:44:b1:1c:
                    fd:5c:f6:be:00:7a:a2:d2:f1:32:ad:b4:02:b8:76:
                    9f:98:57:f9:50:16:b9:b8:ae:a3:c0:4f:23:2d:1e:
                    93:e7:cd:c9:2d:f5:e6:48:e9:4a:ad:99:ea:2d:ee:
                    10:6e:7c:c6:7f:b4:3f:2c:b5
                Exponent: 65537 (0x10001)
        X509v3 extensions:
            X509v3 Basic Constraints: 
                CA:FALSE
            Netscape Comment: 
                OpenSSL Generated Certificate
            X509v3 Subject Key Identifier: 
                E5:48:C1:AF:70:1D:28:BE:45:5D:06:F8:0A:7F:41:E3:59:34:A7:1F
            X509v3 Authority Key Identifier: 
                DirName:/C=KR/CN=gilgil
                serial:BC:FE:EF:E9:4A:BC:63:F0

    Signature Algorithm: sha256WithRSAEncryption
         2d:1e:02:4f:45:04:d6:68:85:3f:1a:27:af:d3:34:6a:d6:52:
         4a:f5:d7:cd:77:4e:d9:05:13:87:ed:22:28:fc:95:b1:30:e2:
         62:09:a9:fc:b8:dc:c1:5e:20:b0:04:28:6c:13:79:7a:f5:59:
         ab:53:da:38:6e:ee:8e:09:ee:b5:53:ce:9f:4c:87:84:49:94:
         a3:7d:31:2a:61:3f:83:17:e3:84:8c:3e:27:26:de:22:2c:a8:
         06:b2:27:d1:51:6f:47:3f:da:47:43:d2:e5:28:5b:51:f2:d6:
         05:e1:fd:b0:45:ec:f3:e5:12:41:f4:25:f6:00:65:68:6c:93:
         fc:b2
-----BEGIN CERTIFICATE-----
MIICXDCCAcWgAwIBAgIBBzANBgkqhkiG9w0BAQsFADAeMQswCQYDVQQGEwJLUjEP
MA0GA1UEAwwGZ2lsZ2lsMCIYDzIwMTQwMzAxMDAwMDAwWhgPMjAyNDAyMjcwMDAw
MDBaMC4xCzAJBgNVBAYTAktSMR8wHQYDVQQDDBZhejY2NzkwNC52by5tc2VjbmQu
bmV0MIGfMA0GCSqGSIb3DQEBAQUAA4GNADCBiQKBgQDf+UyAA7gLyu0nyz2UqlBk
utq/fvo+6yYAQInIYARjqMpjhyWJM+8i0lZtuNhaeYsx5+e82bfQLB+AS7PuYyh/
eHTwOapCxkSxHP1c9r4AeqLS8TKttAK4dp+YV/lQFrm4rqPATyMtHpPnzckt9eZI
6Uqtmeot7hBufMZ/tD8stQIDAQABo4GVMIGSMAkGA1UdEwQCMAAwLAYJYIZIAYb4
QgENBB8WHU9wZW5TU0wgR2VuZXJhdGVkIENlcnRpZmljYXRlMB0GA1UdDgQWBBTl
SMGvcB0ovkVdBvgKf0HjWTSnHzA4BgNVHSMEMTAvoSKkIDAeMQswCQYDVQQGEwJL
UjEPMA0GA1UEAwwGZ2lsZ2lsggkAvP7v6Uq8Y/AwDQYJKoZIhvcNAQELBQADgYEA
LR4CT0UE1miFPxonr9M0atZSSvXXzXdO2QUTh+0iKPyVsTDiYgmp/LjcwV4gsAQo
bBN5evVZq1PaOG7ujgnutVPOn0yHhEmUo30xKmE/gxfjhIw+JybeIiyoBrIn0VFv
Rz/aR0PS5ShbUfLWBeH9sEXs8+USQfQl9gBlaGyT/LI=
-----END CERTIFICATE-----
