-----BEGIN RSA PRIVATE KEY-----
MIICWwIBAAKBgQCwtKvNjPbq9aLQgPLbkx1Wo8S6giqTwScYVMZlRLLQVAyEFMxV
EivzqPsX49hsjLx2XBXRru0vR/CABHyyVyrhUmwRPvY6/GbpYdxHGfQLDzek7Pnl
V5kuKhenf9Y0lrQu35HytikyXDL+JfP7clh02pG9nEv55TLAeWvcLanISQIDAQAB
AoGAVBEwZzM4SaIhGocugy4jWBPDxWOl8/OBsP6sAIPFen1yEuh+Kb7icCKlisEY
NtRh2QGIU+Cf8M2N6qm31XTI7ezTwnEclLfIUv8pcmGttCO23EHqPiteZo96kz/u
wKsfGhPTl/sZP2+UR5kqamvCnBXKyO64vPrKmiMBb8qvi20CQQDkJ2iliep0drsL
GVc5RyYxjOGBDTbyBkp9QlJtNa3LSudSvCMDNB5J+peTXsuVxpWZ6xOxm1+nGnNu
87UAroSrAkEAxkXH/3cFzYgH2gFRLlsNO/dm33gOcKMW7VGWHQep8gcgsI/9T8/S
gJcb7x/7ttunf7fXumGNgv50UupbT/be2wJAMC1+NI6V+rfjsWlNeOPkVcxJBiZT
NvJLIn4xx6vxIh+UD214+0EzMC4BefYniV4g0xrH0tZbcX7tZz2BOD6h9wJAGz5J
XcvP607OrWDS88ilB+FVrE0FxupR4yf7tV9xNYVPM5OFXesTZIHe37uITbbezAjJ
xp1S4XXvK9lx1In6UwJAY0eYkfJkGhMPmy6o3b4yWxR0fZ5zLmfhw5r9zsIvbtEJ
D43EdCbIMwInWph5mgXpOXUsH7PHt3B06zxrXaQSmA==
-----END RSA PRIVATE KEY-----
Certificate:
    Data:
        Version: 3 (0x2)
        Serial Number: 4 (0x4)
    Signature Algorithm: sha256WithRSAEncryption
        Issuer: C=KR, CN=gilgil
        Validity
            Not Before: Mar  1 00:00:00 2014 GMT
            Not After : Feb 27 00:00:00 2024 GMT
        Subject: C=KR, CN=az667904.vo.msecnd.net
        Subject Public Key Info:
            Public Key Algorithm: rsaEncryption
                Public-Key: (1024 bit)
                Modulus:
                    00:b0:b4:ab:cd:8c:f6:ea:f5:a2:d0:80:f2:db:93:
                    1d:56:a3:c4:ba:82:2a:93:c1:27:18:54:c6:65:44:
                    b2:d0:54:0c:84:14:cc:55:12:2b:f3:a8:fb:17:e3:
                    d8:6c:8c:bc:76:5c:15:d1:ae:ed:2f:47:f0:80:04:
                    7c:b2:57:2a:e1:52:6c:11:3e:f6:3a:fc:66:e9:61:
                    dc:47:19:f4:0b:0f:37:a4:ec:f9:e5:57:99:2e:2a:
                    17:a7:7f:d6:34:96:b4:2e:df:91:f2:b6:29:32:5c:
                    32:fe:25:f3:fb:72:58:74:da:91:bd:9c:4b:f9:e5:
                    32:c0:79:6b:dc:2d:a9:c8:49
                Exponent: 65537 (0x10001)
        X509v3 extensions:
            X509v3 Basic Constraints: 
                CA:FALSE
            Netscape Comment: 
                OpenSSL Generated Certificate
            X509v3 Subject Key Identifier: 
                33:A9:7A:60:93:60:64:25:93:AB:B1:22:78:2C:1F:E7:ED:38:FC:8C
            X509v3 Authority Key Identifier: 
                DirName:/C=KR/CN=gilgil
                serial:BC:FE:EF:E9:4A:BC:63:F0

    Signature Algorithm: sha256WithRSAEncryption
         c3:9e:ed:f4:78:8f:78:af:a2:85:3c:98:25:7b:be:3d:e5:aa:
         6c:9a:ec:0c:57:f2:12:8d:25:67:4e:73:7b:74:19:62:65:05:
         bf:e0:a1:92:30:02:5f:49:a2:18:ce:cb:5c:63:d4:4a:2d:b0:
         7c:02:e7:20:93:3a:a5:69:85:fe:24:51:f8:d4:d5:3a:d5:4b:
         47:02:73:a1:c4:13:68:0d:13:80:c9:96:81:07:11:06:c8:2e:
         f4:54:a8:57:8a:9c:3d:e5:64:f6:5e:18:c3:c3:ef:8b:7c:65:
         1f:a8:11:23:a7:b9:41:6a:32:2b:b5:13:2e:44:b9:ca:43:f1:
         4f:bf
-----BEGIN CERTIFICATE-----
MIICXDCCAcWgAwIBAgIBBDANBgkqhkiG9w0BAQsFADAeMQswCQYDVQQGEwJLUjEP
MA0GA1UEAwwGZ2lsZ2lsMCIYDzIwMTQwMzAxMDAwMDAwWhgPMjAyNDAyMjcwMDAw
MDBaMC4xCzAJBgNVBAYTAktSMR8wHQYDVQQDDBZhejY2NzkwNC52by5tc2VjbmQu
bmV0MIGfMA0GCSqGSIb3DQEBAQUAA4GNADCBiQKBgQCwtKvNjPbq9aLQgPLbkx1W
o8S6giqTwScYVMZlRLLQVAyEFMxVEivzqPsX49hsjLx2XBXRru0vR/CABHyyVyrh
UmwRPvY6/GbpYdxHGfQLDzek7PnlV5kuKhenf9Y0lrQu35HytikyXDL+JfP7clh0
2pG9nEv55TLAeWvcLanISQIDAQABo4GVMIGSMAkGA1UdEwQCMAAwLAYJYIZIAYb4
QgENBB8WHU9wZW5TU0wgR2VuZXJhdGVkIENlcnRpZmljYXRlMB0GA1UdDgQWBBQz
qXpgk2BkJZOrsSJ4LB/n7Tj8jDA4BgNVHSMEMTAvoSKkIDAeMQswCQYDVQQGEwJL
UjEPMA0GA1UEAwwGZ2lsZ2lsggkAvP7v6Uq8Y/AwDQYJKoZIhvcNAQELBQADgYEA
w57t9HiPeK+ihTyYJXu+PeWqbJrsDFfyEo0lZ05ze3QZYmUFv+ChkjACX0miGM7L
XGPUSi2wfALnIJM6pWmF/iRR+NTVOtVLRwJzocQTaA0TgMmWgQcRBsgu9FSoV4qc
PeVk9l4Yw8Pvi3xlH6gRI6e5QWoyK7UTLkS5ykPxT78=
-----END CERTIFICATE-----
