-----BEGIN RSA PRIVATE KEY-----
MIICXAIBAAKBgQDW5Rv7r5+JXch14xXCOUjS+8UQJH80KGG4ouZ1iUe7VUmZIftu
K7lQUVFi3thtruqmcuSpiuCJFUePUJ6RaMj2qKaY827xoIP0PkZ6HeCEA4pEWCzq
OcROes7LjkU4KY8whYUS1LCE1DjJfPbRW2+OddVX9IpUiBZnbWUHcwnB6wIDAQAB
AoGAZPhHeq2dL0TycHmfep/B2OhVQm1zm0UyDTf1Qtqa6ql7KElwQuambteWfvco
B/k85bJsQEExmRd3hR4jMz1h1q7EZkRM6JoYbn1E6DmQRkV3bnolJqJCFcRx+RN8
sNKXy+/kPQ/Wt3+2EH7kYbolZRGlZUoMI2VqbDecoADLwQkCQQD4m7cVLjtntHpu
CtT+v7NVblgdTawUcuR8pgTXkVW/+CLw4Pl5JHBQgXw0zofK7cImKadP/7i8VuV1
dhsiyoK3AkEA3UjI8DEobO2Q7XoTbBdUqyslORq2LH626fe/KT/EH61cvr9xWy7o
NTkM1/u4sAw3pcD/jTF//Z1KxBuWOy62bQJBAJiONVLyA9InldlhHEMXL90E0V1q
BGan+j3jQqVlsdETW52k8HG+Qo2kZ6uf8QQ90h3JAbq9mYc5a6UgzJYU3xECQA5w
8pQiUSYStvOYlO3n8+Gb1jkM0jjDKELKpVIW1EDQ+o2ERuyRehwHFhx+VAZBNdx+
ZO8c/OJbQobb2gkQul0CQHWPoME8yp5VRxU9DMBkRzLKHYhqmWUuswAzIznnq0xm
UPWbmx2j/59DEoc10o/m33c6Aec2dVBAnD+5OT1Q2zg=
-----END RSA PRIVATE KEY-----
Certificate:
    Data:
        Version: 3 (0x2)
        Serial Number: 2 (0x2)
    Signature Algorithm: sha256WithRSAEncryption
        Issuer: C=KR, CN=gilgil
        Validity
            Not Before: Mar  1 00:00:00 2014 GMT
            Not After : Feb 27 00:00:00 2024 GMT
        Subject: C=KR, CN=az700632.vo.msecnd.net
        Subject Public Key Info:
            Public Key Algorithm: rsaEncryption
                Public-Key: (1024 bit)
                Modulus:
                    00:d6:e5:1b:fb:af:9f:89:5d:c8:75:e3:15:c2:39:
                    48:d2:fb:c5:10:24:7f:34:28:61:b8:a2:e6:75:89:
                    47:bb:55:49:99:21:fb:6e:2b:b9:50:51:51:62:de:
                    d8:6d:ae:ea:a6:72:e4:a9:8a:e0:89:15:47:8f:50:
                    9e:91:68:c8:f6:a8:a6:98:f3:6e:f1:a0:83:f4:3e:
                    46:7a:1d:e0:84:03:8a:44:58:2c:ea:39:c4:4e:7a:
                    ce:cb:8e:45:38:29:8f:30:85:85:12:d4:b0:84:d4:
                    38:c9:7c:f6:d1:5b:6f:8e:75:d5:57:f4:8a:54:88:
                    16:67:6d:65:07:73:09:c1:eb
                Exponent: 65537 (0x10001)
        X509v3 extensions:
            X509v3 Basic Constraints: 
                CA:FALSE
            Netscape Comment: 
                OpenSSL Generated Certificate
            X509v3 Subject Key Identifier: 
                8C:FB:1D:64:B9:B2:7D:82:52:E6:A5:08:F8:53:0A:FC:07:B3:8B:99
            X509v3 Authority Key Identifier: 
                DirName:/C=KR/CN=gilgil
                serial:BC:FE:EF:E9:4A:BC:63:F0

    Signature Algorithm: sha256WithRSAEncryption
         7f:4d:93:59:0c:59:2f:74:8f:c6:13:8e:5d:f0:7a:b9:48:11:
         c1:41:28:d4:85:a4:3f:1e:c1:e1:37:f5:c9:18:68:48:8b:67:
         0c:4a:79:7f:45:e3:00:35:e6:d7:57:12:e8:eb:d9:e9:23:fd:
         09:25:ea:eb:36:1a:da:30:5d:01:4a:68:9c:71:50:ad:04:e8:
         5f:90:fd:3f:21:14:6c:20:0f:ad:21:67:e5:3d:d0:d2:c2:0c:
         e5:c9:ea:4b:7e:ad:67:6d:52:5a:d3:99:c8:f6:16:b4:8f:17:
         34:7b:5f:49:4f:61:cd:82:0d:17:77:50:c9:3d:cb:fb:47:8c:
         e2:45
-----BEGIN CERTIFICATE-----
MIICXDCCAcWgAwIBAgIBAjANBgkqhkiG9w0BAQsFADAeMQswCQYDVQQGEwJLUjEP
MA0GA1UEAwwGZ2lsZ2lsMCIYDzIwMTQwMzAxMDAwMDAwWhgPMjAyNDAyMjcwMDAw
MDBaMC4xCzAJBgNVBAYTAktSMR8wHQYDVQQDDBZhejcwMDYzMi52by5tc2VjbmQu
bmV0MIGfMA0GCSqGSIb3DQEBAQUAA4GNADCBiQKBgQDW5Rv7r5+JXch14xXCOUjS
+8UQJH80KGG4ouZ1iUe7VUmZIftuK7lQUVFi3thtruqmcuSpiuCJFUePUJ6RaMj2
qKaY827xoIP0PkZ6HeCEA4pEWCzqOcROes7LjkU4KY8whYUS1LCE1DjJfPbRW2+O
ddVX9IpUiBZnbWUHcwnB6wIDAQABo4GVMIGSMAkGA1UdEwQCMAAwLAYJYIZIAYb4
QgENBB8WHU9wZW5TU0wgR2VuZXJhdGVkIENlcnRpZmljYXRlMB0GA1UdDgQWBBSM
+x1kubJ9glLmpQj4Uwr8B7OLmTA4BgNVHSMEMTAvoSKkIDAeMQswCQYDVQQGEwJL
UjEPMA0GA1UEAwwGZ2lsZ2lsggkAvP7v6Uq8Y/AwDQYJKoZIhvcNAQELBQADgYEA
f02TWQxZL3SPxhOOXfB6uUgRwUEo1IWkPx7B4Tf1yRhoSItnDEp5f0XjADXm11cS
6OvZ6SP9CSXq6zYa2jBdAUponHFQrQToX5D9PyEUbCAPrSFn5T3Q0sIM5cnqS36t
Z21SWtOZyPYWtI8XNHtfSU9hzYINF3dQyT3L+0eM4kU=
-----END CERTIFICATE-----
