-----BEGIN RSA PRIVATE KEY-----
MIICXAIBAAKBgQDU+mYC/SwMsrYxdLlVBw8TgoA726JxHWZ35F8m8Pt3JVTSZFvt
GQ5n1Tyoob8t0TN2nEdupJyfW7ozWWiw96jCd5DDQ3BvdnZ/Tex+WmLpeXxxA4Ne
2y3WyWvoOa27Zb5BkrU6S6YZxenbg3axrX/+u49l5+jrjhdR6jxEqPe8iwIDAQAB
AoGAWR1E3e9NJSsJ7PuoKJnBhypNub4W5DmnDHd0EPk4Xwwxx67SgAzB6FRjAzRa
qDMm03RktzkNh+h7qsy4b4PRCnng3N1NkSlDGqjOBMj34ru0udhL3KhVWB4Z57R3
vo2EBF/DxIHDbD3094jCLyQwKKKF/PI9V1jPyT4NWUEDwMECQQD5r4MYUzcC/snk
jbrkiamDjzHBIbPpXDDU/cR/LZyxu0vjd9ar83l9xNH2sszSpEIiBTGzq0MfcyWh
7p3RsmzbAkEA2l09H5vTPufnfQsQi1U12D6jiE7Dfs4A0FHt5WlxkpW8DHtuShdb
Wo/Sgok67Oa1KYtnYSkyvx875JzS5sImEQJASLISIB3yUVvvWiztsiZmhVhGqy1t
3U6rJQgxkrmr+o9GnBbDGNNNlxGb9BDA079hRdhvTRla9Kgo18nKh0hEqwJABExV
iau9ir1x1wpCtxtkRe9ltKcoPfS8G12heySKMcJ0wyIi156CE9RE5oDhAgzAgCLY
VBdFgnGQ8j0MAbLMoQJBAOJ0VFV5kGE6XnD4rBfafKY1kOrgOn0DA65TNPyedGKK
HEVU+DGW6guEld2TavhAXxQHcIKAnnrlA2oNp73U3JY=
-----END RSA PRIVATE KEY-----
Certificate:
    Data:
        Version: 3 (0x2)
        Serial Number: 4 (0x4)
    Signature Algorithm: sha256WithRSAEncryption
        Issuer: C=KR, CN=gilgil
        Validity
            Not Before: Mar  1 00:00:00 2014 GMT
            Not After : Feb 27 00:00:00 2024 GMT
        Subject: C=KR, CN=c.bing.com
        Subject Public Key Info:
            Public Key Algorithm: rsaEncryption
                Public-Key: (1024 bit)
                Modulus:
                    00:d4:fa:66:02:fd:2c:0c:b2:b6:31:74:b9:55:07:
                    0f:13:82:80:3b:db:a2:71:1d:66:77:e4:5f:26:f0:
                    fb:77:25:54:d2:64:5b:ed:19:0e:67:d5:3c:a8:a1:
                    bf:2d:d1:33:76:9c:47:6e:a4:9c:9f:5b:ba:33:59:
                    68:b0:f7:a8:c2:77:90:c3:43:70:6f:76:76:7f:4d:
                    ec:7e:5a:62:e9:79:7c:71:03:83:5e:db:2d:d6:c9:
                    6b:e8:39:ad:bb:65:be:41:92:b5:3a:4b:a6:19:c5:
                    e9:db:83:76:b1:ad:7f:fe:bb:8f:65:e7:e8:eb:8e:
                    17:51:ea:3c:44:a8:f7:bc:8b
                Exponent: 65537 (0x10001)
        X509v3 extensions:
            X509v3 Basic Constraints: 
                CA:FALSE
            Netscape Comment: 
                OpenSSL Generated Certificate
            X509v3 Subject Key Identifier: 
                DB:DD:13:82:A3:47:13:11:06:56:0A:9B:05:83:CB:14:57:01:34:55
            X509v3 Authority Key Identifier: 
                DirName:/C=KR/CN=gilgil
                serial:BC:FE:EF:E9:4A:BC:63:F0

    Signature Algorithm: sha256WithRSAEncryption
         b1:c5:8a:89:49:ea:9a:e7:90:02:8e:b4:99:6b:b0:fb:3a:7b:
         3c:60:64:7e:40:f4:a9:6e:f5:e3:f2:40:bd:11:d7:43:da:74:
         5e:3c:30:ec:a4:ee:1d:b2:30:74:af:2d:c0:c1:8e:58:ae:64:
         03:5a:a8:fb:df:43:d6:b5:04:61:5e:fd:9a:48:6b:5c:f4:86:
         72:db:dd:f8:cf:d6:ba:df:54:69:79:39:8e:9b:dd:27:b6:35:
         da:5f:73:6a:23:24:f4:7b:f9:77:40:f9:2e:69:ca:17:40:a9:
         a2:42:99:81:8e:a9:53:64:0f:43:b2:1c:f8:f4:c1:e0:7d:08:
         e3:63
-----BEGIN CERTIFICATE-----
MIICUDCCAbmgAwIBAgIBBDANBgkqhkiG9w0BAQsFADAeMQswCQYDVQQGEwJLUjEP
MA0GA1UEAwwGZ2lsZ2lsMCIYDzIwMTQwMzAxMDAwMDAwWhgPMjAyNDAyMjcwMDAw
MDBaMCIxCzAJBgNVBAYTAktSMRMwEQYDVQQDDApjLmJpbmcuY29tMIGfMA0GCSqG
SIb3DQEBAQUAA4GNADCBiQKBgQDU+mYC/SwMsrYxdLlVBw8TgoA726JxHWZ35F8m
8Pt3JVTSZFvtGQ5n1Tyoob8t0TN2nEdupJyfW7ozWWiw96jCd5DDQ3BvdnZ/Tex+
WmLpeXxxA4Ne2y3WyWvoOa27Zb5BkrU6S6YZxenbg3axrX/+u49l5+jrjhdR6jxE
qPe8iwIDAQABo4GVMIGSMAkGA1UdEwQCMAAwLAYJYIZIAYb4QgENBB8WHU9wZW5T
U0wgR2VuZXJhdGVkIENlcnRpZmljYXRlMB0GA1UdDgQWBBTb3ROCo0cTEQZWCpsF
g8sUVwE0VTA4BgNVHSMEMTAvoSKkIDAeMQswCQYDVQQGEwJLUjEPMA0GA1UEAwwG
Z2lsZ2lsggkAvP7v6Uq8Y/AwDQYJKoZIhvcNAQELBQADgYEAscWKiUnqmueQAo60
mWuw+zp7PGBkfkD0qW714/JAvRHXQ9p0Xjww7KTuHbIwdK8twMGOWK5kA1qo+99D
1rUEYV79mkhrXPSGctvd+M/Wut9UaXk5jpvdJ7Y12l9zaiMk9Hv5d0D5LmnKF0Cp
okKZgY6pU2QPQ7Ic+PTB4H0I42M=
-----END CERTIFICATE-----
