-----BEGIN RSA PRIVATE KEY-----
MIICXAIBAAKBgQCqYLNIx+IwQL0UeUHYSq7wFFONJCP8yNmJRrf8yju466jD2vEt
YupB8aWzKizxMgNhaYulgI+mtTfdUpwiMRyNGPlv8tA+Hqn6jKzhQv1h6y0Em+TW
Jns/SDp8vSyIiovdIug/0vWhtWkFziysq6xjMnqm2tsqEZtLZXirHV+lTwIDAQAB
AoGANax9DoKZySW760U/7wmoDs34fFBUXgBQN6TltWdoZRsocXr525h7wAaGcujo
e5uL4RZE/gCAQL56OOkbctIR8gWmvRbhKHE/IeifilUBtecg1xUuCbSxmg9z99Me
2cIsnwOnVwzbHMxLKXANsPhoNJL3ba+HpruLcU4ciYaWI6ECQQDZt9OyMtIqZa0O
wwFwVXyUdCb934GCjpnghNpkazJpAYnoas5DJKMdrG/MDVrtCUndZMQTkTNYGveb
Vf2yiSPpAkEAyFXvtKvQQtXVawxh9hF6izy4JU9rRdIga3qFtxUMBNfbWMPjiRgF
6nEZ5ijtuqeZpxIobU01jOkXrq9Xf+vUdwJAexbO/OR2pbmuSbY+TgBG2reAg++l
DOcKYEE8J6HjcjKIgXpA+vzvq4sd+cNjMLgbpqudn2JsINe+PXg0YofeYQJACvPf
0hHepfjI3TxlEq3r9DbSnn+UDtIpIZcmPlcxPAaNIHI9O16L3EBouROdw6msFd1B
RpCFD/oiaFN/xiefiwJBAKbNu4+k2b7aAiHZEdNxpD8iwi03vxE2qKNXDzZdU39r
yhGwJ5YyZ9NTUD6gc6fGZIXMFoqZT/vK/ZpEuks7yXI=
-----END RSA PRIVATE KEY-----
Certificate:
    Data:
        Version: 3 (0x2)
        Serial Number: 7 (0x7)
    Signature Algorithm: sha256WithRSAEncryption
        Issuer: C=KR, CN=gilgil
        Validity
            Not Before: Mar  1 00:00:00 2014 GMT
            Not After : Feb 27 00:00:00 2024 GMT
        Subject: C=KR, CN=c.go-mpulse.net
        Subject Public Key Info:
            Public Key Algorithm: rsaEncryption
                Public-Key: (1024 bit)
                Modulus:
                    00:aa:60:b3:48:c7:e2:30:40:bd:14:79:41:d8:4a:
                    ae:f0:14:53:8d:24:23:fc:c8:d9:89:46:b7:fc:ca:
                    3b:b8:eb:a8:c3:da:f1:2d:62:ea:41:f1:a5:b3:2a:
                    2c:f1:32:03:61:69:8b:a5:80:8f:a6:b5:37:dd:52:
                    9c:22:31:1c:8d:18:f9:6f:f2:d0:3e:1e:a9:fa:8c:
                    ac:e1:42:fd:61:eb:2d:04:9b:e4:d6:26:7b:3f:48:
                    3a:7c:bd:2c:88:8a:8b:dd:22:e8:3f:d2:f5:a1:b5:
                    69:05:ce:2c:ac:ab:ac:63:32:7a:a6:da:db:2a:11:
                    9b:4b:65:78:ab:1d:5f:a5:4f
                Exponent: 65537 (0x10001)
        X509v3 extensions:
            X509v3 Basic Constraints: 
                CA:FALSE
            Netscape Comment: 
                OpenSSL Generated Certificate
            X509v3 Subject Key Identifier: 
                D0:6D:D6:9C:02:56:AB:8A:63:8D:1D:7C:05:BE:A3:ED:F5:D6:B7:11
            X509v3 Authority Key Identifier: 
                DirName:/C=KR/CN=gilgil
                serial:BC:FE:EF:E9:4A:BC:63:F0

    Signature Algorithm: sha256WithRSAEncryption
         64:0a:c3:d0:d4:71:ba:36:38:07:d7:ec:26:47:93:55:1f:91:
         94:3a:9b:b9:41:14:9a:4e:d3:f4:0d:cc:b9:5c:e8:ba:4d:66:
         37:da:e0:f7:4f:43:0d:6f:aa:60:54:d3:b2:98:3a:f4:52:e1:
         7d:6d:3a:9a:9d:33:a5:f8:06:24:9e:79:8b:62:92:2c:72:65:
         7d:fd:92:5b:60:2c:95:c1:71:8d:30:ff:73:32:b6:18:72:1e:
         ef:24:0e:f5:cc:a7:f9:f0:0b:fc:6a:6c:c5:22:6f:d2:4f:14:
         7e:61:48:99:3b:f4:f5:dc:94:80:ca:08:1c:e9:1d:f9:83:62:
         e2:bd
-----BEGIN CERTIFICATE-----
MIICVTCCAb6gAwIBAgIBBzANBgkqhkiG9w0BAQsFADAeMQswCQYDVQQGEwJLUjEP
MA0GA1UEAwwGZ2lsZ2lsMCIYDzIwMTQwMzAxMDAwMDAwWhgPMjAyNDAyMjcwMDAw
MDBaMCcxCzAJBgNVBAYTAktSMRgwFgYDVQQDDA9jLmdvLW1wdWxzZS5uZXQwgZ8w
DQYJKoZIhvcNAQEBBQADgY0AMIGJAoGBAKpgs0jH4jBAvRR5QdhKrvAUU40kI/zI
2YlGt/zKO7jrqMPa8S1i6kHxpbMqLPEyA2Fpi6WAj6a1N91SnCIxHI0Y+W/y0D4e
qfqMrOFC/WHrLQSb5NYmez9IOny9LIiKi90i6D/S9aG1aQXOLKyrrGMyeqba2yoR
m0tleKsdX6VPAgMBAAGjgZUwgZIwCQYDVR0TBAIwADAsBglghkgBhvhCAQ0EHxYd
T3BlblNTTCBHZW5lcmF0ZWQgQ2VydGlmaWNhdGUwHQYDVR0OBBYEFNBt1pwCVquK
Y40dfAW+o+311rcRMDgGA1UdIwQxMC+hIqQgMB4xCzAJBgNVBAYTAktSMQ8wDQYD
VQQDDAZnaWxnaWyCCQC8/u/pSrxj8DANBgkqhkiG9w0BAQsFAAOBgQBkCsPQ1HG6
NjgH1+wmR5NVH5GUOpu5QRSaTtP0Dcy5XOi6TWY32uD3T0MNb6pgVNOymDr0UuF9
bTqanTOl+AYknnmLYpIscmV9/ZJbYCyVwXGNMP9zMrYYch7vJA71zKf58Av8amzF
Im/STxR+YUiZO/T13JSAyggc6R35g2LivQ==
-----END CERTIFICATE-----
