-----BEGIN RSA PRIVATE KEY-----
MIICXgIBAAKBgQDHOQuaUrLDdpwbEtGBYVeXyq34oAYi16wU3G52cs8lmfh9uxH9
9q8a+AsvzuIvG58NK7j2gYhiq58nszi0sC4O8c0iYkqyaPkcxiNmwPYD2qgabl2x
Jg4G+/amL0JMkkf1OHedihBr6wJUDWy5TodBkksw/7brILlELh6PgWK/mwIDAQAB
AoGAbefnocR7wF+f8UOpduH3y9LRtTa7C9/FnGCbRBdEdi8CKoLYgy3jHlK3ATH2
EB0B2udDDCMb1atuix1RbEVBsp1biCs74KUTdqKQJezLAebbh9fMBL2qz9Da6Hjv
SJLGblhKa4oD++5WQ2zOrUkqikAOKl84uZSR4ssZahqoSfECQQDu2u10dVOWe4A/
/45g0ycL0KWaGqLKAnJLehGioJa7/V40ISEp72OyUpPRGNGxStJ8dCRKfx1ym7Uj
xB5W+tHpAkEA1YXa9QqNyADlNNeBazX0PRy6betohsXcj2L9ExvP5LNN7sWcQahL
Lj3BKafJyq5F9PKVSlejqzAX36YIirTu4wJBAOp/+dz6S2RUP+eVKN2asJ0C7XLM
b8JQgJHleGbnrtVFvTUEyaB4LLMoK4OAEG81fE0/YVnaTrj0cfR5WSgf+/ECQQC3
Pu0upyQOpVYQB3M2Q1Ocru8ALqvCHkSvedCfeZrtN0SGymjToE8FHFKOIUV5AB9h
nF6rMpNv8xJKCgACqkzpAkEAwM13NC1sJuwF5fzh3kbgFwGaSlxCTGC4wqXEaTwt
j06ooNWfCnTESrKv0LkmtSUpqGBHTsEnFjOFE5esULhfCQ==
-----END RSA PRIVATE KEY-----
Certificate:
    Data:
        Version: 3 (0x2)
        Serial Number: 1 (0x1)
    Signature Algorithm: sha256WithRSAEncryption
        Issuer: C=KR, CN=gilgil
        Validity
            Not Before: Mar  1 00:00:00 2014 GMT
            Not After : Feb 27 00:00:00 2024 GMT
        Subject: C=KR, CN=c1.microsoft.com
        Subject Public Key Info:
            Public Key Algorithm: rsaEncryption
                Public-Key: (1024 bit)
                Modulus:
                    00:c7:39:0b:9a:52:b2:c3:76:9c:1b:12:d1:81:61:
                    57:97:ca:ad:f8:a0:06:22:d7:ac:14:dc:6e:76:72:
                    cf:25:99:f8:7d:bb:11:fd:f6:af:1a:f8:0b:2f:ce:
                    e2:2f:1b:9f:0d:2b:b8:f6:81:88:62:ab:9f:27:b3:
                    38:b4:b0:2e:0e:f1:cd:22:62:4a:b2:68:f9:1c:c6:
                    23:66:c0:f6:03:da:a8:1a:6e:5d:b1:26:0e:06:fb:
                    f6:a6:2f:42:4c:92:47:f5:38:77:9d:8a:10:6b:eb:
                    02:54:0d:6c:b9:4e:87:41:92:4b:30:ff:b6:eb:20:
                    b9:44:2e:1e:8f:81:62:bf:9b
                Exponent: 65537 (0x10001)
        X509v3 extensions:
            X509v3 Basic Constraints: 
                CA:FALSE
            Netscape Comment: 
                OpenSSL Generated Certificate
            X509v3 Subject Key Identifier: 
                3B:49:AE:4E:B9:35:0F:4F:2D:93:B5:C6:98:97:37:30:CD:A7:B4:10
            X509v3 Authority Key Identifier: 
                DirName:/C=KR/CN=gilgil
                serial:BC:FE:EF:E9:4A:BC:63:F0

    Signature Algorithm: sha256WithRSAEncryption
         93:bd:39:73:2c:92:57:e9:fb:cb:13:0d:2d:44:db:88:cf:72:
         50:cf:d0:8b:a0:9c:68:0e:e8:f8:c6:d9:11:2e:a5:e3:b7:6a:
         b0:31:b8:97:e5:aa:9a:48:ce:6b:5f:eb:3e:6c:d2:84:07:e1:
         eb:87:90:5a:fb:4a:73:d0:b8:9f:16:ff:67:31:b5:5d:db:56:
         dd:6b:3b:d5:5b:43:00:83:97:43:fa:ae:1c:3c:4b:55:e8:c3:
         05:6c:be:c7:d4:e3:f9:c5:f2:e3:c3:93:13:cf:36:01:64:83:
         13:14:91:8c:01:ce:49:93:73:b9:3c:3c:b0:f7:66:2b:33:62:
         21:ee
-----BEGIN CERTIFICATE-----
MIICVjCCAb+gAwIBAgIBATANBgkqhkiG9w0BAQsFADAeMQswCQYDVQQGEwJLUjEP
MA0GA1UEAwwGZ2lsZ2lsMCIYDzIwMTQwMzAxMDAwMDAwWhgPMjAyNDAyMjcwMDAw
MDBaMCgxCzAJBgNVBAYTAktSMRkwFwYDVQQDDBBjMS5taWNyb3NvZnQuY29tMIGf
MA0GCSqGSIb3DQEBAQUAA4GNADCBiQKBgQDHOQuaUrLDdpwbEtGBYVeXyq34oAYi
16wU3G52cs8lmfh9uxH99q8a+AsvzuIvG58NK7j2gYhiq58nszi0sC4O8c0iYkqy
aPkcxiNmwPYD2qgabl2xJg4G+/amL0JMkkf1OHedihBr6wJUDWy5TodBkksw/7br
ILlELh6PgWK/mwIDAQABo4GVMIGSMAkGA1UdEwQCMAAwLAYJYIZIAYb4QgENBB8W
HU9wZW5TU0wgR2VuZXJhdGVkIENlcnRpZmljYXRlMB0GA1UdDgQWBBQ7Sa5OuTUP
Ty2TtcaYlzcwzae0EDA4BgNVHSMEMTAvoSKkIDAeMQswCQYDVQQGEwJLUjEPMA0G
A1UEAwwGZ2lsZ2lsggkAvP7v6Uq8Y/AwDQYJKoZIhvcNAQELBQADgYEAk705cyyS
V+n7yxMNLUTbiM9yUM/Qi6CcaA7o+MbZES6l47dqsDG4l+WqmkjOa1/rPmzShAfh
64eQWvtKc9C4nxb/ZzG1XdtW3Ws71VtDAIOXQ/quHDxLVejDBWy+x9Tj+cXy48OT
E882AWSDExSRjAHOSZNzuTw8sPdmKzNiIe4=
-----END CERTIFICATE-----
