-----BEGIN RSA PRIVATE KEY-----
MIICXgIBAAKBgQDmO9w4sMXHQ3D5iqUNuCXo5m8kFv5l/OHXEnobFLTj4tUbPbzw
2U+XbvP30dBBJyV11P/jk0gRQ1YAQbM7wC8f/zDqwxt0QzPxZ+wRoa+hM4UERyCf
OWON9OmiCl0Tm+6NWFWyfFH264lzSDv8tbImZ71NoM3pjMKVHKKKyc51uQIDAQAB
AoGBANfZExPLFwFDxy0MwMVl+ZSqRVRugj8XoJvEZNnyxcxIo0aQ0Qx0j9wHV47l
E/uhOcuI0AaJ1CzrFjvTXLgN656qoBUOtSgTx3UJLzgu0G5pVt5M++Er4FfXdiyp
kaxNXtbh0wmFYow86xyKdQG7w7zbBemWfSD631WfbEpmh5khAkEA9XrxobhbUMI+
vn7E7ZLuKRsSmyO+10TassLkjQvNryAzjyhlgQU+St6w21IGRQ9TeMDZUq1bphib
KyRljiAzxQJBAPAZp5JKdi6JKRBKCWfWR6dJZ6kHYCFQ0yQ6LCDvjUbU6odDRPam
SVmhYPJz/8DNYvvoU9I8jjv+Q2EjtRu9dWUCQQCLyOmlhHyDPUlLYpazDjMONzte
GnnGzY+XscFBzBHhAn45q/A5CwpQygR9r3SgiLyoi3B1UwBYUbSyWXR2/UFdAkEA
lXSyvbqCJGeW2x/rCOr2wWhNEYeYzEQ+mk9nxry3KX9B2h8Cn7JU+GkfKu0QJ5jx
47Lz8mtlcmzMznvmsbTWjQJAYSX0WXWuMwdvfEX0borzlvCgZkSq1xwbJFMarkWH
e5zu88WcPiMuQ/hNgOcyYFLvQZoNzkY87gC2knlCaqXpIA==
-----END RSA PRIVATE KEY-----
Certificate:
    Data:
        Version: 3 (0x2)
        Serial Number: 3 (0x3)
    Signature Algorithm: sha256WithRSAEncryption
        Issuer: C=KR, CN=gilgil
        Validity
            Not Before: Mar  1 00:00:00 2014 GMT
            Not After : Feb 27 00:00:00 2024 GMT
        Subject: C=KR, CN=clients4.google.com
        Subject Public Key Info:
            Public Key Algorithm: rsaEncryption
                Public-Key: (1024 bit)
                Modulus:
                    00:e6:3b:dc:38:b0:c5:c7:43:70:f9:8a:a5:0d:b8:
                    25:e8:e6:6f:24:16:fe:65:fc:e1:d7:12:7a:1b:14:
                    b4:e3:e2:d5:1b:3d:bc:f0:d9:4f:97:6e:f3:f7:d1:
                    d0:41:27:25:75:d4:ff:e3:93:48:11:43:56:00:41:
                    b3:3b:c0:2f:1f:ff:30:ea:c3:1b:74:43:33:f1:67:
                    ec:11:a1:af:a1:33:85:04:47:20:9f:39:63:8d:f4:
                    e9:a2:0a:5d:13:9b:ee:8d:58:55:b2:7c:51:f6:eb:
                    89:73:48:3b:fc:b5:b2:26:67:bd:4d:a0:cd:e9:8c:
                    c2:95:1c:a2:8a:c9:ce:75:b9
                Exponent: 65537 (0x10001)
        X509v3 extensions:
            X509v3 Basic Constraints: 
                CA:FALSE
            Netscape Comment: 
                OpenSSL Generated Certificate
            X509v3 Subject Key Identifier: 
                21:12:27:AE:78:BD:E2:89:20:F0:47:E2:1F:39:6E:42:1B:7D:43:BA
            X509v3 Authority Key Identifier: 
                DirName:/C=KR/CN=gilgil
                serial:BC:FE:EF:E9:4A:BC:63:F0

    Signature Algorithm: sha256WithRSAEncryption
         3d:b9:98:c7:20:a7:0a:3c:a1:bf:c8:9b:48:0e:40:c9:20:03:
         f2:55:73:34:3d:6e:90:0a:2b:f2:ee:82:ca:b4:68:77:1f:62:
         27:f2:ba:42:b2:98:65:87:bd:83:d6:d0:f7:79:16:a2:ca:7d:
         93:9d:e7:d4:45:c1:89:68:a6:99:15:8c:b3:d3:a8:a5:df:27:
         6f:8a:65:0d:d3:b3:76:1c:c5:bf:d5:6f:b0:90:2b:70:be:96:
         a1:fb:d5:37:01:24:e6:89:2d:82:ac:b6:2d:4a:ba:f2:5a:6e:
         af:c2:b5:31:e6:e7:ec:c1:c6:33:1a:d7:ab:ff:81:b7:d3:db:
         2e:fa
-----BEGIN CERTIFICATE-----
MIICWTCCAcKgAwIBAgIBAzANBgkqhkiG9w0BAQsFADAeMQswCQYDVQQGEwJLUjEP
MA0GA1UEAwwGZ2lsZ2lsMCIYDzIwMTQwMzAxMDAwMDAwWhgPMjAyNDAyMjcwMDAw
MDBaMCsxCzAJBgNVBAYTAktSMRwwGgYDVQQDDBNjbGllbnRzNC5nb29nbGUuY29t
MIGfMA0GCSqGSIb3DQEBAQUAA4GNADCBiQKBgQDmO9w4sMXHQ3D5iqUNuCXo5m8k
Fv5l/OHXEnobFLTj4tUbPbzw2U+XbvP30dBBJyV11P/jk0gRQ1YAQbM7wC8f/zDq
wxt0QzPxZ+wRoa+hM4UERyCfOWON9OmiCl0Tm+6NWFWyfFH264lzSDv8tbImZ71N
oM3pjMKVHKKKyc51uQIDAQABo4GVMIGSMAkGA1UdEwQCMAAwLAYJYIZIAYb4QgEN
BB8WHU9wZW5TU0wgR2VuZXJhdGVkIENlcnRpZmljYXRlMB0GA1UdDgQWBBQhEieu
eL3iiSDwR+IfOW5CG31DujA4BgNVHSMEMTAvoSKkIDAeMQswCQYDVQQGEwJLUjEP
MA0GA1UEAwwGZ2lsZ2lsggkAvP7v6Uq8Y/AwDQYJKoZIhvcNAQELBQADgYEAPbmY
xyCnCjyhv8ibSA5AySAD8lVzND1ukAor8u6CyrRodx9iJ/K6QrKYZYe9g9bQ93kW
osp9k53n1EXBiWimmRWMs9Oopd8nb4plDdOzdhzFv9VvsJArcL6WofvVNwEk5okt
gqy2LUq68lpur8K1Mebn7MHGMxrXq/+Bt9PbLvo=
-----END CERTIFICATE-----
