-----BEGIN RSA PRIVATE KEY-----
MIICXQIBAAKBgQCY9RWYU4rxHMn3+SE1LNtchfFa3XI2FZU3TNIN9GraZmWDen/H
M28iErgenvhPWBGgy7WFXK7zQ90Fm2DvRATUApVKn3dwW5fGUFJUoJ7cWKuCdVhE
90RC7UWjQALpNBi1ef0R6WHL2bwnfafVS0IB/QNpXNxR2NADmos8jMbtkQIDAQAB
AoGAP2TEcH+fhFLkOkwcwUc4G17AK2LAZT4IvASwwmvcpWvvAtEQiGT+2GZdvQMx
8uCTXctQDlfdgqFLx3kgccoFHZ1kWm2Mw5Uhdc8aEClw+dQMcFbCPUOPXBLQeN5/
bRRKBqdFeoALM2C46kFuF23FOBxyr1JJJLyuS1C0u4+mbUkCQQDLmYPAPMbt5IOU
M54wxCYhZIZ8umOgwc473YWnOtmbPaPV/urd2+93G8bkwCiWetM2aPt31Y+Py3bY
MKq0gq5zAkEAwFLr5N90nLiHoDRb9lZfr3YkmaVJuvk2ozn5YIfcvisFaeVxR8BD
YbM3zYyj+t/lYKfaQNvKWsiR0gR/q3+O6wJBAJROyC0xWIsTyVEcZKALUedDLcAP
meERK+Rp0iDl+ntd5ElOvtFLk10FC9W3sBklcVOSF5PMKh5JzNFgagjBpMcCQQCm
kSqs9rtQYKFWJwLevr/wfyoDyBurS9v+Ul+hMwoDyc7OgGEz+1hgbY+O/pem1/MZ
W0azlagUKFHiyvKn3boxAkB4RnL5gnqa2KEtG2WFhcfntTokJ2b4o+M2Xk6bdkZl
XsDUHMski2I/CmUiLMGm5oLOW7soVW5H+JnB3IUeFJz4
-----END RSA PRIVATE KEY-----
Certificate:
    Data:
        Version: 3 (0x2)
        Serial Number: 4 (0x4)
    Signature Algorithm: sha256WithRSAEncryption
        Issuer: C=KR, CN=gilgil
        Validity
            Not Before: Mar  1 00:00:00 2014 GMT
            Not After : Feb 27 00:00:00 2024 GMT
        Subject: C=KR, CN=clientservices.googleapis.com
        Subject Public Key Info:
            Public Key Algorithm: rsaEncryption
                Public-Key: (1024 bit)
                Modulus:
                    00:98:f5:15:98:53:8a:f1:1c:c9:f7:f9:21:35:2c:
                    db:5c:85:f1:5a:dd:72:36:15:95:37:4c:d2:0d:f4:
                    6a:da:66:65:83:7a:7f:c7:33:6f:22:12:b8:1e:9e:
                    f8:4f:58:11:a0:cb:b5:85:5c:ae:f3:43:dd:05:9b:
                    60:ef:44:04:d4:02:95:4a:9f:77:70:5b:97:c6:50:
                    52:54:a0:9e:dc:58:ab:82:75:58:44:f7:44:42:ed:
                    45:a3:40:02:e9:34:18:b5:79:fd:11:e9:61:cb:d9:
                    bc:27:7d:a7:d5:4b:42:01:fd:03:69:5c:dc:51:d8:
                    d0:03:9a:8b:3c:8c:c6:ed:91
                Exponent: 65537 (0x10001)
        X509v3 extensions:
            X509v3 Basic Constraints: 
                CA:FALSE
            Netscape Comment: 
                OpenSSL Generated Certificate
            X509v3 Subject Key Identifier: 
                71:4C:C6:99:3D:D9:39:15:4E:34:4C:B0:18:13:18:95:82:46:4B:B8
            X509v3 Authority Key Identifier: 
                DirName:/C=KR/CN=gilgil
                serial:BC:FE:EF:E9:4A:BC:63:F0

    Signature Algorithm: sha256WithRSAEncryption
         82:2f:17:80:c1:70:28:de:31:4e:d4:df:95:5d:46:41:19:0a:
         a0:06:35:45:8f:8a:59:c7:8a:47:d3:b8:0c:80:3e:74:4b:40:
         ba:35:2c:d7:04:88:d1:a7:f3:84:73:e4:2f:5f:f9:55:00:ea:
         52:3e:eb:75:1e:84:70:7f:31:b5:6c:21:f1:d8:bf:3f:a5:f6:
         d9:be:24:31:01:3a:bd:52:26:04:18:a5:3b:89:ed:17:44:02:
         5d:d1:f3:9b:3c:c6:4e:95:11:43:4e:74:0f:a7:fc:26:a3:f1:
         3f:79:7a:99:13:7d:ac:fd:cd:71:c9:00:c7:99:01:19:e1:64:
         6c:44
-----BEGIN CERTIFICATE-----
MIICYzCCAcygAwIBAgIBBDANBgkqhkiG9w0BAQsFADAeMQswCQYDVQQGEwJLUjEP
MA0GA1UEAwwGZ2lsZ2lsMCIYDzIwMTQwMzAxMDAwMDAwWhgPMjAyNDAyMjcwMDAw
MDBaMDUxCzAJBgNVBAYTAktSMSYwJAYDVQQDDB1jbGllbnRzZXJ2aWNlcy5nb29n
bGVhcGlzLmNvbTCBnzANBgkqhkiG9w0BAQEFAAOBjQAwgYkCgYEAmPUVmFOK8RzJ
9/khNSzbXIXxWt1yNhWVN0zSDfRq2mZlg3p/xzNvIhK4Hp74T1gRoMu1hVyu80Pd
BZtg70QE1AKVSp93cFuXxlBSVKCe3FirgnVYRPdEQu1Fo0AC6TQYtXn9Eelhy9m8
J32n1UtCAf0DaVzcUdjQA5qLPIzG7ZECAwEAAaOBlTCBkjAJBgNVHRMEAjAAMCwG
CWCGSAGG+EIBDQQfFh1PcGVuU1NMIEdlbmVyYXRlZCBDZXJ0aWZpY2F0ZTAdBgNV
HQ4EFgQUcUzGmT3ZORVONEywGBMYlYJGS7gwOAYDVR0jBDEwL6EipCAwHjELMAkG
A1UEBhMCS1IxDzANBgNVBAMMBmdpbGdpbIIJALz+7+lKvGPwMA0GCSqGSIb3DQEB
CwUAA4GBAIIvF4DBcCjeMU7U35VdRkEZCqAGNUWPilnHikfTuAyAPnRLQLo1LNcE
iNGn84Rz5C9f+VUA6lI+63UehHB/MbVsIfHYvz+l9tm+JDEBOr1SJgQYpTuJ7RdE
Al3R85s8xk6VEUNOdA+n/Caj8T95epkTfaz9zXHJAMeZARnhZGxE
-----END CERTIFICATE-----
