-----BEGIN RSA PRIVATE KEY-----
MIICXQIBAAKBgQDUv60Z4idJDxdD0d1t9Gra0V+UfSwnMGosIhO1bFhPvJhGVcpb
GNWWk1t1YlNodF6rdDbhuZv3X36KMFZUOtw+/iq2HQC0az+jSfB0tgefx5CFhNNC
ph04PZOITRRo/Y0i9cEm/jiWGPy1t7uo9AlLwkkJPdgepMTkOnzTEX7bLwIDAQAB
AoGBAM2EICbp1gN4hYPpXttSCks5iPh7dsSgu1/Ix3sxn5nfWMZRJ7qaofHkhaw+
gM5d4/oCuOWTFLyBzk6V5T9W4NxiIvJtrXTRnumoSOeWVh3Mg3cL81WvCsGglqfM
OBdR9Z9E7J0X3frWryDa5FhTmfTG99oJeefsD1/rp14FVLPBAkEA8e9+RBAiLSAr
4I4cLl919XzOoGmKs1rdaTaaZbhggRXGoK5UnqHigzMfZ5pEo8TKQFC1w78Q90ZH
vN+vA7KwzwJBAOEd0pA5G8Nd2dRYQeWGBrgXZVu3LSLTC1iSxeqgkiwt/NCZhSAc
bCWrRxsRmK/ubEZV7LS+R56TiYzRG3I4B6ECQCwplnfgJgzssXW1GynP3R1poeIg
QeRJct8wy3BD/sGxcueDywiF7m4al+H2hA8M7gpdcUCBERzCJHgysKTRKnsCQEBb
dkclDHrd6dh7IturZWBbz+5Yf97k1umLjGl3XlKjExPPz+9OMNzUCpACh9REJVA2
YGWLwI3lP/2yClatDgECQQDqc1ZOFtmq9YiHEIy/zUvqjifiyHpV0yDXuNyefJwu
KXEpjElC1InyOprNTl/dbL+ecKXfr9KAuWWOMmnSVudG
-----END RSA PRIVATE KEY-----
Certificate:
    Data:
        Version: 3 (0x2)
        Serial Number: 8 (0x8)
    Signature Algorithm: sha256WithRSAEncryption
        Issuer: C=KR, CN=gilgil
        Validity
            Not Before: Mar  1 00:00:00 2014 GMT
            Not After : Feb 27 00:00:00 2024 GMT
        Subject: C=KR, CN=clients2.google.com
        Subject Public Key Info:
            Public Key Algorithm: rsaEncryption
                Public-Key: (1024 bit)
                Modulus:
                    00:d4:bf:ad:19:e2:27:49:0f:17:43:d1:dd:6d:f4:
                    6a:da:d1:5f:94:7d:2c:27:30:6a:2c:22:13:b5:6c:
                    58:4f:bc:98:46:55:ca:5b:18:d5:96:93:5b:75:62:
                    53:68:74:5e:ab:74:36:e1:b9:9b:f7:5f:7e:8a:30:
                    56:54:3a:dc:3e:fe:2a:b6:1d:00:b4:6b:3f:a3:49:
                    f0:74:b6:07:9f:c7:90:85:84:d3:42:a6:1d:38:3d:
                    93:88:4d:14:68:fd:8d:22:f5:c1:26:fe:38:96:18:
                    fc:b5:b7:bb:a8:f4:09:4b:c2:49:09:3d:d8:1e:a4:
                    c4:e4:3a:7c:d3:11:7e:db:2f
                Exponent: 65537 (0x10001)
        X509v3 extensions:
            X509v3 Basic Constraints: 
                CA:FALSE
            Netscape Comment: 
                OpenSSL Generated Certificate
            X509v3 Subject Key Identifier: 
                8F:66:22:91:EB:AF:05:B5:D5:A0:F3:65:1E:F4:18:CB:4D:56:47:33
            X509v3 Authority Key Identifier: 
                DirName:/C=KR/CN=gilgil
                serial:BC:FE:EF:E9:4A:BC:63:F0

    Signature Algorithm: sha256WithRSAEncryption
         b4:36:cf:06:de:30:c4:a8:dd:73:95:5c:8c:c8:bf:f4:e0:34:
         3c:1c:4d:b2:ca:ee:a9:ae:f9:b4:39:00:90:cf:67:56:36:16:
         e1:8a:d5:ae:b0:0d:90:1e:3d:e5:93:b8:da:a8:40:de:4a:7f:
         a4:56:43:dc:53:42:49:87:fa:68:11:99:29:55:72:bd:d7:60:
         3c:40:0d:1b:9c:f8:61:d7:df:bd:33:25:61:81:aa:c9:aa:01:
         fc:75:b8:00:20:1b:dd:29:b4:3c:40:0e:ea:23:07:ab:b9:e9:
         c6:a2:cc:4f:84:e1:e8:23:b2:cd:8a:88:4d:56:27:dc:d7:2d:
         25:fc
-----BEGIN CERTIFICATE-----
MIICWTCCAcKgAwIBAgIBCDANBgkqhkiG9w0BAQsFADAeMQswCQYDVQQGEwJLUjEP
MA0GA1UEAwwGZ2lsZ2lsMCIYDzIwMTQwMzAxMDAwMDAwWhgPMjAyNDAyMjcwMDAw
MDBaMCsxCzAJBgNVBAYTAktSMRwwGgYDVQQDDBNjbGllbnRzMi5nb29nbGUuY29t
MIGfMA0GCSqGSIb3DQEBAQUAA4GNADCBiQKBgQDUv60Z4idJDxdD0d1t9Gra0V+U
fSwnMGosIhO1bFhPvJhGVcpbGNWWk1t1YlNodF6rdDbhuZv3X36KMFZUOtw+/iq2
HQC0az+jSfB0tgefx5CFhNNCph04PZOITRRo/Y0i9cEm/jiWGPy1t7uo9AlLwkkJ
PdgepMTkOnzTEX7bLwIDAQABo4GVMIGSMAkGA1UdEwQCMAAwLAYJYIZIAYb4QgEN
BB8WHU9wZW5TU0wgR2VuZXJhdGVkIENlcnRpZmljYXRlMB0GA1UdDgQWBBSPZiKR
668FtdWg82Ue9BjLTVZHMzA4BgNVHSMEMTAvoSKkIDAeMQswCQYDVQQGEwJLUjEP
MA0GA1UEAwwGZ2lsZ2lsggkAvP7v6Uq8Y/AwDQYJKoZIhvcNAQELBQADgYEAtDbP
Bt4wxKjdc5VcjMi/9OA0PBxNssruqa75tDkAkM9nVjYW4YrVrrANkB495ZO42qhA
3kp/pFZD3FNCSYf6aBGZKVVyvddgPEANG5z4YdffvTMlYYGqyaoB/HW4ACAb3Sm0
PEAO6iMHq7npxqLMT4Th6COyzYqITVYn3NctJfw=
-----END CERTIFICATE-----
