-----BEGIN RSA PRIVATE KEY-----
MIICWwIBAAKBgQCq3zEZ5EGp9l0Abzar8d5NoPKPKz2CSINfpYBRRR5LUHP17TRM
Ep1iVqIU43+Q3sGGa8YdLORXlwsvOZ4j4nsDNyGmoySChOL7937zrb+dEK0Al7V2
Jcaq8SztxrgO9AfW2WdBcDqe8NhzX6QRotTk7LoxxUlau+uHoz+PnJt2lwIDAQAB
AoGAGBVPIVwXmTH9F7OVHBUCBST7KwyoJbW8tn1oIYxBYdIcFfxx04sIHbUiMRmD
gFK1KhIEoVYTdPj3/Zb8YAhq1+UH6TyQn8YGUI+3/WZG90ne4j29sL2hP5LpsPC4
APRQ/PDNPmWIcuSA8OqcjUDaIviCTQqiigBLHyP1JEyvWEECQQDiZjosjTcr+ebo
aB2051xFZXeSMMWECh8rcRpwtjFM2c2mYkGMYsAh7rk5Tycbr+wKlGFvM9xFvViF
BsM8ev53AkEAwTZp7ZLg2YgXsN81lIH2N/GWzl48hr4l1WKWqEQOsvXLu+y3T8Su
FlaUHCW/5EE343hxjdRnBQvAHmh12vCw4QJAdnSqZ3kTruy4Rk2DjY2oF585asId
9jIdkOtCvEp3jRBAq5epWDyq7pYrT7L8cV4gkICGYlquG8cwM5oQOOrZjQJAbE2U
ExfB8i3XGc4Euroeyj0hy4wHYYA0tOgOi0Oa+bXN/gkyuAQHkX32h9ChP9FPArMA
8/+bv7hWeLUVWySQAQJAEEv2031JrLutwy3cZptKh3DLjVbB6dL5fIbjUB+TMAWo
lKp+Yo/os9NlbdqEYmyXQ7xeLfJ4j2kea8kTBNy0GA==
-----END RSA PRIVATE KEY-----
Certificate:
    Data:
        Version: 3 (0x2)
        Serial Number: 1 (0x1)
    Signature Algorithm: sha256WithRSAEncryption
        Issuer: C=KR, CN=gilgil
        Validity
            Not Before: Mar  1 00:00:00 2014 GMT
            Not After : Feb 27 00:00:00 2024 GMT
        Subject: C=KR, CN=clients1.google.com
        Subject Public Key Info:
            Public Key Algorithm: rsaEncryption
                Public-Key: (1024 bit)
                Modulus:
                    00:aa:df:31:19:e4:41:a9:f6:5d:00:6f:36:ab:f1:
                    de:4d:a0:f2:8f:2b:3d:82:48:83:5f:a5:80:51:45:
                    1e:4b:50:73:f5:ed:34:4c:12:9d:62:56:a2:14:e3:
                    7f:90:de:c1:86:6b:c6:1d:2c:e4:57:97:0b:2f:39:
                    9e:23:e2:7b:03:37:21:a6:a3:24:82:84:e2:fb:f7:
                    7e:f3:ad:bf:9d:10:ad:00:97:b5:76:25:c6:aa:f1:
                    2c:ed:c6:b8:0e:f4:07:d6:d9:67:41:70:3a:9e:f0:
                    d8:73:5f:a4:11:a2:d4:e4:ec:ba:31:c5:49:5a:bb:
                    eb:87:a3:3f:8f:9c:9b:76:97
                Exponent: 65537 (0x10001)
        X509v3 extensions:
            X509v3 Basic Constraints: 
                CA:FALSE
            Netscape Comment: 
                OpenSSL Generated Certificate
            X509v3 Subject Key Identifier: 
                26:1D:F7:00:B0:07:74:3B:6B:AD:70:89:BD:D3:77:B3:40:04:BA:A6
            X509v3 Authority Key Identifier: 
                DirName:/C=KR/CN=gilgil
                serial:BC:FE:EF:E9:4A:BC:63:F0

    Signature Algorithm: sha256WithRSAEncryption
         b6:6b:f5:e0:c1:e5:45:bc:fa:44:f9:5e:76:44:f5:df:e0:99:
         88:7d:04:a9:74:77:0f:95:5e:23:1e:58:03:74:c6:75:04:cf:
         9f:45:c1:5e:d3:9b:1d:a4:34:c1:b0:b1:19:84:b3:8d:0d:40:
         77:00:79:2d:0f:0e:66:71:91:46:b7:6c:36:aa:83:d2:5c:9a:
         48:eb:9f:c6:0a:24:26:7d:0b:87:8a:8d:84:09:7a:21:8a:bb:
         31:ed:45:49:74:c9:7c:62:eb:d2:9a:98:99:9e:b8:f1:76:26:
         23:f8:7f:70:d4:4a:50:90:b2:02:ec:18:ed:24:68:51:6a:c4:
         5a:d7
-----BEGIN CERTIFICATE-----
MIICWTCCAcKgAwIBAgIBATANBgkqhkiG9w0BAQsFADAeMQswCQYDVQQGEwJLUjEP
MA0GA1UEAwwGZ2lsZ2lsMCIYDzIwMTQwMzAxMDAwMDAwWhgPMjAyNDAyMjcwMDAw
MDBaMCsxCzAJBgNVBAYTAktSMRwwGgYDVQQDDBNjbGllbnRzMS5nb29nbGUuY29t
MIGfMA0GCSqGSIb3DQEBAQUAA4GNADCBiQKBgQCq3zEZ5EGp9l0Abzar8d5NoPKP
Kz2CSINfpYBRRR5LUHP17TRMEp1iVqIU43+Q3sGGa8YdLORXlwsvOZ4j4nsDNyGm
oySChOL7937zrb+dEK0Al7V2Jcaq8SztxrgO9AfW2WdBcDqe8NhzX6QRotTk7Lox
xUlau+uHoz+PnJt2lwIDAQABo4GVMIGSMAkGA1UdEwQCMAAwLAYJYIZIAYb4QgEN
BB8WHU9wZW5TU0wgR2VuZXJhdGVkIENlcnRpZmljYXRlMB0GA1UdDgQWBBQmHfcA
sAd0O2utcIm903ezQAS6pjA4BgNVHSMEMTAvoSKkIDAeMQswCQYDVQQGEwJLUjEP
MA0GA1UEAwwGZ2lsZ2lsggkAvP7v6Uq8Y/AwDQYJKoZIhvcNAQELBQADgYEAtmv1
4MHlRbz6RPledkT13+CZiH0EqXR3D5VeIx5YA3TGdQTPn0XBXtObHaQ0wbCxGYSz
jQ1AdwB5LQ8OZnGRRrdsNqqD0lyaSOufxgokJn0Lh4qNhAl6IYq7Me1FSXTJfGLr
0pqYmZ648XYmI/h/cNRKUJCyAuwY7SRoUWrEWtc=
-----END CERTIFICATE-----
