-----BEGIN RSA PRIVATE KEY-----
MIICXAIBAAKBgQC9CW0vzQMiPcV8uRu1EJbUHU9VogZr4PXFKIeHDsBSewJbLLPq
h7Z6K9Z0DoTpdgSpAeWIlRrYEYTZlOTJ5TkRZMAacgsAi73i47ame5GZs0+/uh+e
9YPOEtrMMzeX9rD+U+X8FtQ1BYyozz4R6tDq0WN3tX64G4F275ydqBk82wIDAQAB
AoGAF13j7kW0PnZORBWJlD8htcSNuvMVQh6DosRYxFwRb+CesPB8qN/vsXhbwOrO
iSE6gD2oxtJPiCfaOR8LjN1VyVcdXH821RbP9ZpPtuZkXFcOEdULbL+Z9aCKuN/G
aycUui/1cZQ0Ukl170bw1zmbZJAmx4pkgNQQhGeqZULOkckCQQDrYGxgnYR6/DTT
dtD17bvANOCqECsXcH4rwjwxKZuCSXzU92BOpdBSpc8SpBB0VIHkh3P3203rFrcr
1w3ETXd9AkEAzZmV1+9a9XOk09Fx6YXSp6kMR7u3ZefqqzNxHjvHQR6gGHYo9HUZ
18XuN9eHFueojXHwjbK7/HxN7pjxmAWlNwJAb2Tq5a6mjC3gMlQBAOLKAGUGDnYo
bqdmjv8VzY6LclWlJoUMpywCM5sVLRVIVEXKU4VndN3tOl09wxm8AjNHYQJBAKuI
liHgiwz5/OzUc6uXgRdszNgUX4DgK0PG2XuV+Dn2aS+/dY/vGy6Q7p0cbpLHmDLa
ew5drsWKmCKW7Aofu6UCQElwFyNvTdGGQNVwGQqfP1hDGbpTYm0szaq1S1mzTNQ2
WdkXEs1RMRqo2pDjHSg1Y371GkS4MbzgV2Xxgyf8fHM=
-----END RSA PRIVATE KEY-----
Certificate:
    Data:
        Version: 3 (0x2)
        Serial Number: 3 (0x3)
    Signature Algorithm: sha256WithRSAEncryption
        Issuer: C=KR, CN=gilgil
        Validity
            Not Before: Mar  1 00:00:00 2014 GMT
            Not After : Feb 27 00:00:00 2024 GMT
        Subject: C=KR, CN=cm.everesttech.net
        Subject Public Key Info:
            Public Key Algorithm: rsaEncryption
                Public-Key: (1024 bit)
                Modulus:
                    00:bd:09:6d:2f:cd:03:22:3d:c5:7c:b9:1b:b5:10:
                    96:d4:1d:4f:55:a2:06:6b:e0:f5:c5:28:87:87:0e:
                    c0:52:7b:02:5b:2c:b3:ea:87:b6:7a:2b:d6:74:0e:
                    84:e9:76:04:a9:01:e5:88:95:1a:d8:11:84:d9:94:
                    e4:c9:e5:39:11:64:c0:1a:72:0b:00:8b:bd:e2:e3:
                    b6:a6:7b:91:99:b3:4f:bf:ba:1f:9e:f5:83:ce:12:
                    da:cc:33:37:97:f6:b0:fe:53:e5:fc:16:d4:35:05:
                    8c:a8:cf:3e:11:ea:d0:ea:d1:63:77:b5:7e:b8:1b:
                    81:76:ef:9c:9d:a8:19:3c:db
                Exponent: 65537 (0x10001)
        X509v3 extensions:
            X509v3 Basic Constraints: 
                CA:FALSE
            Netscape Comment: 
                OpenSSL Generated Certificate
            X509v3 Subject Key Identifier: 
                E1:D9:F0:AF:22:01:5A:9B:7B:4F:17:9E:84:A3:0C:38:2E:93:62:49
            X509v3 Authority Key Identifier: 
                DirName:/C=KR/CN=gilgil
                serial:BC:FE:EF:E9:4A:BC:63:F0

    Signature Algorithm: sha256WithRSAEncryption
         1a:39:dc:0d:46:46:4b:d9:c6:68:75:1f:01:51:c4:f6:2f:59:
         47:db:82:7a:2f:38:94:86:3b:26:33:ab:c7:17:42:b1:53:64:
         7d:7f:8b:36:97:33:e5:90:25:03:73:b2:76:de:94:52:5a:09:
         6e:55:ca:e9:82:27:9d:d5:62:b7:57:28:c9:c7:eb:7f:89:c2:
         8a:12:16:62:b4:39:19:72:86:a6:8b:7e:1e:d2:53:ed:d3:2d:
         ce:48:8a:50:0e:2e:f4:c1:8f:5f:cd:a5:49:35:61:32:25:28:
         c2:b8:b2:7a:ce:1c:2a:e9:b3:da:27:05:8a:4d:53:14:32:f0:
         5d:06
-----BEGIN CERTIFICATE-----
MIICWDCCAcGgAwIBAgIBAzANBgkqhkiG9w0BAQsFADAeMQswCQYDVQQGEwJLUjEP
MA0GA1UEAwwGZ2lsZ2lsMCIYDzIwMTQwMzAxMDAwMDAwWhgPMjAyNDAyMjcwMDAw
MDBaMCoxCzAJBgNVBAYTAktSMRswGQYDVQQDDBJjbS5ldmVyZXN0dGVjaC5uZXQw
gZ8wDQYJKoZIhvcNAQEBBQADgY0AMIGJAoGBAL0JbS/NAyI9xXy5G7UQltQdT1Wi
Bmvg9cUoh4cOwFJ7Alsss+qHtnor1nQOhOl2BKkB5YiVGtgRhNmU5MnlORFkwBpy
CwCLveLjtqZ7kZmzT7+6H571g84S2swzN5f2sP5T5fwW1DUFjKjPPhHq0OrRY3e1
frgbgXbvnJ2oGTzbAgMBAAGjgZUwgZIwCQYDVR0TBAIwADAsBglghkgBhvhCAQ0E
HxYdT3BlblNTTCBHZW5lcmF0ZWQgQ2VydGlmaWNhdGUwHQYDVR0OBBYEFOHZ8K8i
AVqbe08XnoSjDDguk2JJMDgGA1UdIwQxMC+hIqQgMB4xCzAJBgNVBAYTAktSMQ8w
DQYDVQQDDAZnaWxnaWyCCQC8/u/pSrxj8DANBgkqhkiG9w0BAQsFAAOBgQAaOdwN
RkZL2cZodR8BUcT2L1lH24J6LziUhjsmM6vHF0KxU2R9f4s2lzPlkCUDc7J23pRS
WgluVcrpgied1WK3VyjJx+t/icKKEhZitDkZcoami34e0lPt0y3OSIpQDi70wY9f
zaVJNWEyJSjCuLJ6zhwq6bPaJwWKTVMUMvBdBg==
-----END CERTIFICATE-----
