-----BEGIN RSA PRIVATE KEY-----
MIICXAIBAAKBgQC+fiRD+5PFCcI9+7ZRnsGLd478DVFYOsFahIiMLpmcceJ4wKLx
PuwUFhEgbbEvxu014OzkFhCch49+aPxrsfRp+1Up5xjs5N4hOljhxLUiNVljVnsT
11iT9DQvicL1P9sf/nabUc9t6IvkePtoRpAFumQkLlaF06p9miRnGA+lpQIDAQAB
AoGBAIAFLkIx9OFa6ZvWanT4CIK+Wu2x1ZVCB2fZ4hqzxrCJKPaWH+uZqfblzaTJ
k2bUfd7TxuCSo59Oy3TdAacu9V6LOZ8kPyVhmOtwv8VK0paCXXaH29I2N8YFN/eK
xYKAMaBkrQa30xDxLHp3Onu3pfKlBMoMYnZUzQHSASY0QIoBAkEA6NTA3SgA/Qpl
x7suaXwFWw4qhDYMKIOrWnsZDgb+uIz0cCZzIenuaSXPdoDBVhaKWdbSn6KIDdZ3
Rj/iSo8s4QJBANFy15RJEvXbPFs7TAVFPb7EQOeNcKptDUJXBGEbgs5U7qzms2xb
pb3cohzKwK/4huo3KVQ6SanRAqMEQMo1LUUCQBi0iops9j3jXo1k9TXILSFOTYCd
44hhAEuniC8O2vRmMIG98rWEhwGtO2hNnTYvShriSpMZweoF+b4AhVh3/MECQAfP
jJKPFxHsFxgf4fngVykiEHmSIL16S6BJtnQYnowrRqtT/yTvVgL6k2EXfpARaJab
cAMgGVcn4D1MD057JTECQEN4WbwdprWV/B6AcbDJS46C2YyhmfpXXNmj+f2AJXqh
leCz2KS5LgZ+gRZ0/8I7KX3sFpfn5r+vpOm7jeklfP8=
-----END RSA PRIVATE KEY-----
Certificate:
    Data:
        Version: 3 (0x2)
        Serial Number: 18 (0x12)
    Signature Algorithm: sha256WithRSAEncryption
        Issuer: C=KR, CN=gilgil
        Validity
            Not Before: Mar  1 00:00:00 2014 GMT
            Not After : Feb 27 00:00:00 2024 GMT
        Subject: C=KR, CN=cm.g.doubleclick.net
        Subject Public Key Info:
            Public Key Algorithm: rsaEncryption
                Public-Key: (1024 bit)
                Modulus:
                    00:be:7e:24:43:fb:93:c5:09:c2:3d:fb:b6:51:9e:
                    c1:8b:77:8e:fc:0d:51:58:3a:c1:5a:84:88:8c:2e:
                    99:9c:71:e2:78:c0:a2:f1:3e:ec:14:16:11:20:6d:
                    b1:2f:c6:ed:35:e0:ec:e4:16:10:9c:87:8f:7e:68:
                    fc:6b:b1:f4:69:fb:55:29:e7:18:ec:e4:de:21:3a:
                    58:e1:c4:b5:22:35:59:63:56:7b:13:d7:58:93:f4:
                    34:2f:89:c2:f5:3f:db:1f:fe:76:9b:51:cf:6d:e8:
                    8b:e4:78:fb:68:46:90:05:ba:64:24:2e:56:85:d3:
                    aa:7d:9a:24:67:18:0f:a5:a5
                Exponent: 65537 (0x10001)
        X509v3 extensions:
            X509v3 Basic Constraints: 
                CA:FALSE
            Netscape Comment: 
                OpenSSL Generated Certificate
            X509v3 Subject Key Identifier: 
                F2:81:8D:28:B4:39:2F:AC:A5:88:FD:B0:38:F6:0B:B7:BC:48:38:AF
            X509v3 Authority Key Identifier: 
                DirName:/C=KR/CN=gilgil
                serial:BC:FE:EF:E9:4A:BC:63:F0

    Signature Algorithm: sha256WithRSAEncryption
         10:e8:59:33:aa:99:39:e0:76:98:d3:6f:c0:d0:11:57:74:4d:
         e0:ef:6c:38:66:b9:80:91:5d:0e:36:59:7b:5e:84:12:17:06:
         05:48:c1:9d:9c:95:ab:b3:7f:d5:e9:67:3a:b7:80:4c:31:5c:
         9e:36:9d:4e:41:0b:e3:58:57:3d:b4:b1:20:62:4e:b9:3f:05:
         78:55:ce:1a:b8:db:9f:55:7a:4d:20:11:b2:5c:7b:c3:d3:89:
         e2:4a:66:47:e1:b9:42:6b:0f:28:6a:dc:27:7b:b9:07:42:b8:
         3a:3c:d4:e2:42:f5:51:86:31:ad:5a:13:3a:be:12:1f:a9:3d:
         00:4f
-----BEGIN CERTIFICATE-----
MIICWjCCAcOgAwIBAgIBEjANBgkqhkiG9w0BAQsFADAeMQswCQYDVQQGEwJLUjEP
MA0GA1UEAwwGZ2lsZ2lsMCIYDzIwMTQwMzAxMDAwMDAwWhgPMjAyNDAyMjcwMDAw
MDBaMCwxCzAJBgNVBAYTAktSMR0wGwYDVQQDDBRjbS5nLmRvdWJsZWNsaWNrLm5l
dDCBnzANBgkqhkiG9w0BAQEFAAOBjQAwgYkCgYEAvn4kQ/uTxQnCPfu2UZ7Bi3eO
/A1RWDrBWoSIjC6ZnHHieMCi8T7sFBYRIG2xL8btNeDs5BYQnIePfmj8a7H0aftV
KecY7OTeITpY4cS1IjVZY1Z7E9dYk/Q0L4nC9T/bH/52m1HPbeiL5Hj7aEaQBbpk
JC5WhdOqfZokZxgPpaUCAwEAAaOBlTCBkjAJBgNVHRMEAjAAMCwGCWCGSAGG+EIB
DQQfFh1PcGVuU1NMIEdlbmVyYXRlZCBDZXJ0aWZpY2F0ZTAdBgNVHQ4EFgQU8oGN
KLQ5L6yliP2wOPYLt7xIOK8wOAYDVR0jBDEwL6EipCAwHjELMAkGA1UEBhMCS1Ix
DzANBgNVBAMMBmdpbGdpbIIJALz+7+lKvGPwMA0GCSqGSIb3DQEBCwUAA4GBABDo
WTOqmTngdpjTb8DQEVd0TeDvbDhmuYCRXQ42WXtehBIXBgVIwZ2clauzf9XpZzq3
gEwxXJ42nU5BC+NYVz20sSBiTrk/BXhVzhq4259Vek0gEbJce8PTieJKZkfhuUJr
Dyhq3Cd7uQdCuDo81OJC9VGGMa1aEzq+Eh+pPQBP
-----END CERTIFICATE-----
