-----BEGIN RSA PRIVATE KEY-----
MIICXQIBAAKBgQDPI913zNFyyzSlZDNIwPPWES/hwuaF2MQaUT2Z5rrlw5CS86dR
WHERx16oKNkYGQ+F0SLY9DoXotzdGPqrA9Ao4z/Ya0XhAfbqEyGaG8b6woLqb5ft
SEwZVI3gCAaGSyCC6WGLYvQ1KinykjAi/RiMNkgsMYvfNjTzV/LitVcUxwIDAQAB
AoGBAMTLlkWTWgpt9P6NTAv7Ba6DdbJPsSPI5cb7GEN3ammQe3Kh+nzWQdZaTBwH
cvnqFU1VfH4Syn5aROvqJ30CimgYgA7cEG6/ck5NZkaDW5WbALRak+Nvf2RUu3Q3
bzoAtz+XlWwUpTWKMl9E6ArHqWE0gY77PLtYFom3n9m94fKBAkEA7RNFOTrD6GYL
54povyHD1f0JaMcCqhxvPpZ61KDivS7gzlv8N8YBSSZ0WbDZ2808WMUI2ZZ743HS
j1FgfKV5bwJBAN+s23FUtwDCxkqwE30zNMqvEAyJz8v+T3Np/ONB6XvIQOn1dbwI
TUYwvyciCZ3OlMh7l2aDt+b3fCpyI2cOfikCQQDMXOY5VSz3sq/kYm21BTg5yKxJ
w/PKDEThIPq1PBL4neZwPN8IfQkys5Fsl4TVcu/oXcEpQA1/nOizXqTcDhDFAkAy
87x1X5fke3oSL3PxFEYVWbWtNYN5c7ADmYQ6/JvET8TBxuGP+NApihcxQeaw5Qst
dEHz31N4MK4/OQrpgfqpAkAHjnWTWeFdkkw+SB9GLGsj3Mu54JXF6IBiRalHIom6
Y0wzKUo5E8wZRvClEFCceg4YCja9FL2pMjf6tBP5ry7K
-----END RSA PRIVATE KEY-----
Certificate:
    Data:
        Version: 3 (0x2)
        Serial Number: 15 (0xf)
    Signature Algorithm: sha256WithRSAEncryption
        Issuer: C=KR, CN=gilgil
        Validity
            Not Before: Mar  1 00:00:00 2014 GMT
            Not After : Feb 27 00:00:00 2024 GMT
        Subject: C=KR, CN=d.turn.com
        Subject Public Key Info:
            Public Key Algorithm: rsaEncryption
                Public-Key: (1024 bit)
                Modulus:
                    00:cf:23:dd:77:cc:d1:72:cb:34:a5:64:33:48:c0:
                    f3:d6:11:2f:e1:c2:e6:85:d8:c4:1a:51:3d:99:e6:
                    ba:e5:c3:90:92:f3:a7:51:58:71:11:c7:5e:a8:28:
                    d9:18:19:0f:85:d1:22:d8:f4:3a:17:a2:dc:dd:18:
                    fa:ab:03:d0:28:e3:3f:d8:6b:45:e1:01:f6:ea:13:
                    21:9a:1b:c6:fa:c2:82:ea:6f:97:ed:48:4c:19:54:
                    8d:e0:08:06:86:4b:20:82:e9:61:8b:62:f4:35:2a:
                    29:f2:92:30:22:fd:18:8c:36:48:2c:31:8b:df:36:
                    34:f3:57:f2:e2:b5:57:14:c7
                Exponent: 65537 (0x10001)
        X509v3 extensions:
            X509v3 Basic Constraints: 
                CA:FALSE
            Netscape Comment: 
                OpenSSL Generated Certificate
            X509v3 Subject Key Identifier: 
                6D:5B:4E:62:D0:DC:41:D2:A4:5F:61:F4:B8:0C:AB:5A:52:BA:15:20
            X509v3 Authority Key Identifier: 
                DirName:/C=KR/CN=gilgil
                serial:BC:FE:EF:E9:4A:BC:63:F0

    Signature Algorithm: sha256WithRSAEncryption
         9e:4b:cd:26:23:ae:e8:23:30:ef:03:99:a4:65:0f:a6:e9:47:
         93:a2:55:77:54:ae:0f:81:c3:3c:b7:ef:56:7b:8b:0e:c6:45:
         6c:ce:d1:71:10:b6:0d:30:58:cb:d8:99:28:97:67:eb:83:3a:
         ea:68:c1:da:23:6d:9a:16:cf:b9:aa:50:d2:ac:5d:15:15:cb:
         8d:30:ba:fa:63:57:c3:62:5f:75:cf:23:8d:72:93:cb:9d:b8:
         eb:3d:e1:10:49:b7:10:63:67:3f:1f:49:06:ce:0f:0b:ea:3e:
         b8:6d:e7:32:b8:13:a4:52:74:50:63:dd:76:33:90:20:a7:80:
         b2:fe
-----BEGIN CERTIFICATE-----
MIICUDCCAbmgAwIBAgIBDzANBgkqhkiG9w0BAQsFADAeMQswCQYDVQQGEwJLUjEP
MA0GA1UEAwwGZ2lsZ2lsMCIYDzIwMTQwMzAxMDAwMDAwWhgPMjAyNDAyMjcwMDAw
MDBaMCIxCzAJBgNVBAYTAktSMRMwEQYDVQQDDApkLnR1cm4uY29tMIGfMA0GCSqG
SIb3DQEBAQUAA4GNADCBiQKBgQDPI913zNFyyzSlZDNIwPPWES/hwuaF2MQaUT2Z
5rrlw5CS86dRWHERx16oKNkYGQ+F0SLY9DoXotzdGPqrA9Ao4z/Ya0XhAfbqEyGa
G8b6woLqb5ftSEwZVI3gCAaGSyCC6WGLYvQ1KinykjAi/RiMNkgsMYvfNjTzV/Li
tVcUxwIDAQABo4GVMIGSMAkGA1UdEwQCMAAwLAYJYIZIAYb4QgENBB8WHU9wZW5T
U0wgR2VuZXJhdGVkIENlcnRpZmljYXRlMB0GA1UdDgQWBBRtW05i0NxB0qRfYfS4
DKtaUroVIDA4BgNVHSMEMTAvoSKkIDAeMQswCQYDVQQGEwJLUjEPMA0GA1UEAwwG
Z2lsZ2lsggkAvP7v6Uq8Y/AwDQYJKoZIhvcNAQELBQADgYEAnkvNJiOu6CMw7wOZ
pGUPpulHk6JVd1SuD4HDPLfvVnuLDsZFbM7RcRC2DTBYy9iZKJdn64M66mjB2iNt
mhbPuapQ0qxdFRXLjTC6+mNXw2Jfdc8jjXKTy5246z3hEEm3EGNnPx9JBs4PC+o+
uG3nMrgTpFJ0UGPddjOQIKeAsv4=
-----END CERTIFICATE-----
