-----BEGIN RSA PRIVATE KEY-----
MIICXQIBAAKBgQC7x9BWf2l6js+A4nH1yIhPvYJHSTyBENiPRSVqdr06CF7uXmge
ACsgpc0d9/BPES2twmYMrk04zj4E+bjaVTkdoXyV88Xj2nb2BS/RSmP7qg5JOSBj
Y6T8dHorGBFBm++YI1I2NZ+ciZ5fpf27STv/BoJ3q7TqpbAE5Rbdi/QwGQIDAQAB
AoGBAIXs03ztcDgVpI7Ccg6ekAF3InRfGkTe0+USpsXQm9LI55PQRyembRvixHDs
RTrPAKodrJS8t5ydE4SO6jTldU6e/3B1Czu4A44Hrwguoe7KxZL7pjHRu9bncHWr
GtpFx/1lJeuJE+QDTvGbqrRIRjiyuJGhIebawwyI+tprfqzFAkEA9X80UHWJuXu2
QIU+MY33x3xlmrIXe7LYZpGf6ouDMhp4BAxojdvsbe8erD9N1Mg7uYofsxZFeUDr
7iyMivOFlwJBAMPQeRqs9VQ2Mpx3AQWk3MJQWlIJbJk851tXDsrTAApsApbno6Fh
ogPHG0eR9zOJQTeMUayc07EFf+CDJOghjc8CQHocGZNjw2uFQ3P4UqUnbnXFRGyb
5N5caRMroBVz64ACdmvdGCxnlcRgyir3Gema50o0j+vuSgQz7KZ9djKvSmUCQAlu
wHa1gDfnSHbbELSJ5YyCvGcZRx72nRp8Th0dHvJhk5pbXDmI73oJHFpNQMA9y2N2
ofSTtWrgnfFdv+hivWcCQQCXDUQQ01ffPg63f9U/LU3bY9Jtdh3u6xJiKMo3mPzc
bckBrqoFyvL0/lT9fxws4PYUYMuFzTyVo5R0bNeOprzU
-----END RSA PRIVATE KEY-----
Certificate:
    Data:
        Version: 3 (0x2)
        Serial Number: 4 (0x4)
    Signature Algorithm: sha256WithRSAEncryption
        Issuer: C=KR, CN=gilgil
        Validity
            Not Before: Mar  1 00:00:00 2014 GMT
            Not After : Feb 27 00:00:00 2024 GMT
        Subject: C=KR, CN=display.ad.daum.net
        Subject Public Key Info:
            Public Key Algorithm: rsaEncryption
                Public-Key: (1024 bit)
                Modulus:
                    00:bb:c7:d0:56:7f:69:7a:8e:cf:80:e2:71:f5:c8:
                    88:4f:bd:82:47:49:3c:81:10:d8:8f:45:25:6a:76:
                    bd:3a:08:5e:ee:5e:68:1e:00:2b:20:a5:cd:1d:f7:
                    f0:4f:11:2d:ad:c2:66:0c:ae:4d:38:ce:3e:04:f9:
                    b8:da:55:39:1d:a1:7c:95:f3:c5:e3:da:76:f6:05:
                    2f:d1:4a:63:fb:aa:0e:49:39:20:63:63:a4:fc:74:
                    7a:2b:18:11:41:9b:ef:98:23:52:36:35:9f:9c:89:
                    9e:5f:a5:fd:bb:49:3b:ff:06:82:77:ab:b4:ea:a5:
                    b0:04:e5:16:dd:8b:f4:30:19
                Exponent: 65537 (0x10001)
        X509v3 extensions:
            X509v3 Basic Constraints: 
                CA:FALSE
            Netscape Comment: 
                OpenSSL Generated Certificate
            X509v3 Subject Key Identifier: 
                22:A5:D1:5C:1A:73:B5:DB:C3:40:FE:94:29:4B:43:99:80:B6:1E:3A
            X509v3 Authority Key Identifier: 
                DirName:/C=KR/CN=gilgil
                serial:BC:FE:EF:E9:4A:BC:63:F0

    Signature Algorithm: sha256WithRSAEncryption
         1f:29:e5:ed:0b:d4:f8:e1:8a:dc:5c:11:84:6a:35:03:86:ac:
         1f:13:a9:02:5a:70:6c:22:e8:1f:e5:49:61:5f:fa:be:e7:d9:
         1e:84:36:57:de:c1:1e:f4:5f:60:bb:09:e0:b4:a6:a8:00:bf:
         d1:cd:fc:f5:bf:62:aa:18:94:f6:53:f9:60:b7:4b:22:c6:21:
         b5:58:06:84:16:c0:8f:d8:2d:2b:eb:f6:50:9e:47:1d:e2:0a:
         34:6c:dc:20:cd:97:93:cc:a4:ff:dd:b9:64:d1:b1:f1:1d:2a:
         ae:f4:04:db:4e:72:8c:29:bf:3e:11:22:98:5f:d5:f9:a6:d2:
         02:63
-----BEGIN CERTIFICATE-----
MIICWTCCAcKgAwIBAgIBBDANBgkqhkiG9w0BAQsFADAeMQswCQYDVQQGEwJLUjEP
MA0GA1UEAwwGZ2lsZ2lsMCIYDzIwMTQwMzAxMDAwMDAwWhgPMjAyNDAyMjcwMDAw
MDBaMCsxCzAJBgNVBAYTAktSMRwwGgYDVQQDDBNkaXNwbGF5LmFkLmRhdW0ubmV0
MIGfMA0GCSqGSIb3DQEBAQUAA4GNADCBiQKBgQC7x9BWf2l6js+A4nH1yIhPvYJH
STyBENiPRSVqdr06CF7uXmgeACsgpc0d9/BPES2twmYMrk04zj4E+bjaVTkdoXyV
88Xj2nb2BS/RSmP7qg5JOSBjY6T8dHorGBFBm++YI1I2NZ+ciZ5fpf27STv/BoJ3
q7TqpbAE5Rbdi/QwGQIDAQABo4GVMIGSMAkGA1UdEwQCMAAwLAYJYIZIAYb4QgEN
BB8WHU9wZW5TU0wgR2VuZXJhdGVkIENlcnRpZmljYXRlMB0GA1UdDgQWBBQipdFc
GnO128NA/pQpS0OZgLYeOjA4BgNVHSMEMTAvoSKkIDAeMQswCQYDVQQGEwJLUjEP
MA0GA1UEAwwGZ2lsZ2lsggkAvP7v6Uq8Y/AwDQYJKoZIhvcNAQELBQADgYEAHynl
7QvU+OGK3FwRhGo1A4asHxOpAlpwbCLoH+VJYV/6vufZHoQ2V97BHvRfYLsJ4LSm
qAC/0c389b9iqhiU9lP5YLdLIsYhtVgGhBbAj9gtK+v2UJ5HHeIKNGzcIM2Xk8yk
/925ZNGx8R0qrvQE205yjCm/PhEimF/V+abSAmM=
-----END CERTIFICATE-----
