-----BEGIN RSA PRIVATE KEY-----
MIICXQIBAAKBgQCsUg8Sroxm3cjQ1UMm9dq4KWrY/09qVZluaow0XeU3mdfnb4Ab
6xBvm+aJgVqgu1WvfPn789D5+CYl4yNXh2ygSjTi0AT1JCd2+AQU2XQd7ZBFhwgl
U8274mp/6RUeYuyne4V6jbknSktFWqVhvPu2Wnwv0vUNQFBuazAuvOVMewIDAQAB
AoGAVEwgS4dP79J3NpHdM+X5hTXdqyHae648TKOaytNUGosL74/AH+gyNicR9Bpv
d0mtdReyQurXRDF8l/QxidQZ8tIspZdWloMmHvsOL5jTBvTN9drdyJXGvSP8BVMt
ggnHiMotbVqlp/8BqyHgyCOhGUsRURz0tlobjzBhy9UAlqECQQDbGB4CWm/i3NmB
FIeKb/Z6g6cof6EjOdEnwiJ7OxEABNnGtHWuJidg1dUqf4p65vqh2gSrtx880vO/
pCyHtQevAkEAyVjyIGO5+WvQ2Mp683R1ELLII+0RduIlmt40nbUWfrZ3rYxiK3jJ
o/GatDiKqZbJOwYr7wNC40+qrTMudFSu9QJBANk9IpRGw+X4AZphlruHpKd53sbj
Ng1NiLuZXMM/n+2a4ayKxpy0rBryK3kGGXMfj6foGvWAj3Kp4JJG4Ph2YXUCQBJR
HyXHLMH+Bu/R68F+FLBCM2bhSDdyd01RbaPzN2qrmtOU89FUmbNqZVKD2kl3SDMw
aorB1zHqq3I6N72pfokCQQCcNn5dyRJhF/wU3OYzdjat82sOzFmlcMycCMLlWTUu
ZYenHaKa535Z3wWgFl05H1cyYe1DYPJZvXqja/Xml1ZT
-----END RSA PRIVATE KEY-----
Certificate:
    Data:
        Version: 3 (0x2)
        Serial Number: 4 (0x4)
    Signature Algorithm: sha256WithRSAEncryption
        Issuer: C=KR, CN=gilgil
        Validity
            Not Before: Mar  1 00:00:00 2014 GMT
            Not After : Feb 27 00:00:00 2024 GMT
        Subject: C=KR, CN=dm2305.storage.live.com
        Subject Public Key Info:
            Public Key Algorithm: rsaEncryption
                Public-Key: (1024 bit)
                Modulus:
                    00:ac:52:0f:12:ae:8c:66:dd:c8:d0:d5:43:26:f5:
                    da:b8:29:6a:d8:ff:4f:6a:55:99:6e:6a:8c:34:5d:
                    e5:37:99:d7:e7:6f:80:1b:eb:10:6f:9b:e6:89:81:
                    5a:a0:bb:55:af:7c:f9:fb:f3:d0:f9:f8:26:25:e3:
                    23:57:87:6c:a0:4a:34:e2:d0:04:f5:24:27:76:f8:
                    04:14:d9:74:1d:ed:90:45:87:08:25:53:cd:bb:e2:
                    6a:7f:e9:15:1e:62:ec:a7:7b:85:7a:8d:b9:27:4a:
                    4b:45:5a:a5:61:bc:fb:b6:5a:7c:2f:d2:f5:0d:40:
                    50:6e:6b:30:2e:bc:e5:4c:7b
                Exponent: 65537 (0x10001)
        X509v3 extensions:
            X509v3 Basic Constraints: 
                CA:FALSE
            Netscape Comment: 
                OpenSSL Generated Certificate
            X509v3 Subject Key Identifier: 
                01:E9:12:4F:14:63:DE:CC:FA:B5:AD:FB:DA:75:BF:F0:2F:01:A3:6F
            X509v3 Authority Key Identifier: 
                DirName:/C=KR/CN=gilgil
                serial:BC:FE:EF:E9:4A:BC:63:F0

    Signature Algorithm: sha256WithRSAEncryption
         6a:fd:ff:b9:5a:47:d2:ad:44:1a:cf:3a:76:92:ed:0d:96:62:
         59:45:9f:9a:0c:15:6d:0a:62:0c:51:cd:29:63:78:33:6f:ee:
         88:a8:5f:68:a9:cf:a8:c0:f6:8e:d6:7e:fc:71:01:47:42:a5:
         c0:81:c6:f5:b8:57:55:33:74:96:7e:a4:63:98:97:b3:b0:b8:
         4c:e5:47:fb:a4:17:d4:d3:16:11:52:a9:12:35:31:71:28:61:
         ef:85:e8:ed:9e:12:26:8f:61:0d:d7:a6:27:b3:a5:5b:a1:53:
         28:54:17:a2:88:1c:2e:18:20:d3:9c:cd:91:de:20:b5:cd:12:
         35:e4
-----BEGIN CERTIFICATE-----
MIICXTCCAcagAwIBAgIBBDANBgkqhkiG9w0BAQsFADAeMQswCQYDVQQGEwJLUjEP
MA0GA1UEAwwGZ2lsZ2lsMCIYDzIwMTQwMzAxMDAwMDAwWhgPMjAyNDAyMjcwMDAw
MDBaMC8xCzAJBgNVBAYTAktSMSAwHgYDVQQDDBdkbTIzMDUuc3RvcmFnZS5saXZl
LmNvbTCBnzANBgkqhkiG9w0BAQEFAAOBjQAwgYkCgYEArFIPEq6MZt3I0NVDJvXa
uClq2P9PalWZbmqMNF3lN5nX52+AG+sQb5vmiYFaoLtVr3z5+/PQ+fgmJeMjV4ds
oEo04tAE9SQndvgEFNl0He2QRYcIJVPNu+Jqf+kVHmLsp3uFeo25J0pLRVqlYbz7
tlp8L9L1DUBQbmswLrzlTHsCAwEAAaOBlTCBkjAJBgNVHRMEAjAAMCwGCWCGSAGG
+EIBDQQfFh1PcGVuU1NMIEdlbmVyYXRlZCBDZXJ0aWZpY2F0ZTAdBgNVHQ4EFgQU
AekSTxRj3sz6ta372nW/8C8Bo28wOAYDVR0jBDEwL6EipCAwHjELMAkGA1UEBhMC
S1IxDzANBgNVBAMMBmdpbGdpbIIJALz+7+lKvGPwMA0GCSqGSIb3DQEBCwUAA4GB
AGr9/7laR9KtRBrPOnaS7Q2WYllFn5oMFW0KYgxRzSljeDNv7oioX2ipz6jA9o7W
fvxxAUdCpcCBxvW4V1UzdJZ+pGOYl7OwuEzlR/ukF9TTFhFSqRI1MXEoYe+F6O2e
EiaPYQ3XpiezpVuhUyhUF6KIHC4YINOczZHeILXNEjXk
-----END CERTIFICATE-----
