-----BEGIN RSA PRIVATE KEY-----
MIICWwIBAAKBgQDAbEFtUH7iYbp8PzNdX3Z2/Bhqz4XxRNYhHCAJ35V/aG2J4dqT
BaEncwrb/5kh46Yn5LIg6CScL+Qs1GRCG9iwXOFMJ64af2MlT68JNjk75Dhz0MJ7
RTIa7QHCf7e7Ll611oLAaRHn6EJhWf3fK/hn0mxsbiUomoC357MqZ2LK3QIDAQAB
AoGAMx+P8n8kdvkIFuKjvvcR/mLUCezA5W0ohvt196mTipowICYFcHJacqS6CeFK
yho1lvvH575Fm8mNkeuMB5RmaV5AxLsy9pffs0l7ZkYdlEs+pLLl5kfAzdqWEL81
c7/Nzz+pCPx4j8sJuxA4MwUsNBad3+ifBNS6ICd5QfxdfIECQQD50Wfm6qCTPbm5
R8gw4BEHgWNBH6sOO3moqqSLwpQKm6MLuSMt/vtN4zJLRxpuSivPiFYWBwRk3I15
YH9EaoeVAkEAxS9Alc6uwD18Y8mHc/jcKYlewXf7eX2xY84KaMfibl52oUN1gwjd
JFFVIz/dp/26HghG8YKRTkxKZmvvczHEKQJAREFUtCDS8qfgwKC+L6xourY9WiO+
5sqVOOI2xwDI1gUkDSXuWLjcDLHQogSxUgTt52wGqUoNh0lDVjBpVVYN6QJAXVvK
82LBAEncPA6tsC3yZ0Qf9e/Nw67MLxndedCxl1noRt/+okSvF0Pe0Gqrkp8h4JhA
ppYQIAck7qtJ2ruESQJABYhqamq0DLht/XWxgU17ssEK+cX9muzTzMeyajwIjxeY
22956g1UaveUfHuX0630uW4moidSlZl9d2Ig+8ijKA==
-----END RSA PRIVATE KEY-----
Certificate:
    Data:
        Version: 3 (0x2)
        Serial Number: 17 (0x11)
    Signature Algorithm: sha256WithRSAEncryption
        Issuer: C=KR, CN=gilgil
        Validity
            Not Before: Mar  1 00:00:00 2014 GMT
            Not After : Feb 27 00:00:00 2024 GMT
        Subject: C=KR, CN=dp2.33across.com
        Subject Public Key Info:
            Public Key Algorithm: rsaEncryption
                Public-Key: (1024 bit)
                Modulus:
                    00:c0:6c:41:6d:50:7e:e2:61:ba:7c:3f:33:5d:5f:
                    76:76:fc:18:6a:cf:85:f1:44:d6:21:1c:20:09:df:
                    95:7f:68:6d:89:e1:da:93:05:a1:27:73:0a:db:ff:
                    99:21:e3:a6:27:e4:b2:20:e8:24:9c:2f:e4:2c:d4:
                    64:42:1b:d8:b0:5c:e1:4c:27:ae:1a:7f:63:25:4f:
                    af:09:36:39:3b:e4:38:73:d0:c2:7b:45:32:1a:ed:
                    01:c2:7f:b7:bb:2e:5e:b5:d6:82:c0:69:11:e7:e8:
                    42:61:59:fd:df:2b:f8:67:d2:6c:6c:6e:25:28:9a:
                    80:b7:e7:b3:2a:67:62:ca:dd
                Exponent: 65537 (0x10001)
        X509v3 extensions:
            X509v3 Basic Constraints: 
                CA:FALSE
            Netscape Comment: 
                OpenSSL Generated Certificate
            X509v3 Subject Key Identifier: 
                D9:EA:79:6F:1F:30:89:F5:85:43:AB:5C:3F:71:5B:2A:F6:A7:3B:50
            X509v3 Authority Key Identifier: 
                DirName:/C=KR/CN=gilgil
                serial:BC:FE:EF:E9:4A:BC:63:F0

    Signature Algorithm: sha256WithRSAEncryption
         6f:98:54:a6:b3:b0:80:8e:44:09:ea:0c:23:ec:ec:f2:ce:29:
         a6:f3:98:b9:a0:ff:01:17:3c:da:c9:78:5c:59:4f:db:78:17:
         d3:89:69:fc:43:6f:67:35:42:e1:74:5d:33:fb:73:5a:88:57:
         bf:0a:1d:4d:7e:77:78:c0:99:28:af:fd:49:bc:fe:d8:87:d7:
         05:74:e1:8d:9a:b7:b3:e4:1b:4d:07:37:a4:86:ed:fd:8d:e5:
         ed:02:8c:48:3b:59:cc:1d:de:61:26:82:6e:34:d7:97:f8:0a:
         3a:91:01:7f:11:3d:8d:b5:0b:71:f9:cf:13:4a:58:37:4d:9a:
         c5:57
-----BEGIN CERTIFICATE-----
MIICVjCCAb+gAwIBAgIBETANBgkqhkiG9w0BAQsFADAeMQswCQYDVQQGEwJLUjEP
MA0GA1UEAwwGZ2lsZ2lsMCIYDzIwMTQwMzAxMDAwMDAwWhgPMjAyNDAyMjcwMDAw
MDBaMCgxCzAJBgNVBAYTAktSMRkwFwYDVQQDDBBkcDIuMzNhY3Jvc3MuY29tMIGf
MA0GCSqGSIb3DQEBAQUAA4GNADCBiQKBgQDAbEFtUH7iYbp8PzNdX3Z2/Bhqz4Xx
RNYhHCAJ35V/aG2J4dqTBaEncwrb/5kh46Yn5LIg6CScL+Qs1GRCG9iwXOFMJ64a
f2MlT68JNjk75Dhz0MJ7RTIa7QHCf7e7Ll611oLAaRHn6EJhWf3fK/hn0mxsbiUo
moC357MqZ2LK3QIDAQABo4GVMIGSMAkGA1UdEwQCMAAwLAYJYIZIAYb4QgENBB8W
HU9wZW5TU0wgR2VuZXJhdGVkIENlcnRpZmljYXRlMB0GA1UdDgQWBBTZ6nlvHzCJ
9YVDq1w/cVsq9qc7UDA4BgNVHSMEMTAvoSKkIDAeMQswCQYDVQQGEwJLUjEPMA0G
A1UEAwwGZ2lsZ2lsggkAvP7v6Uq8Y/AwDQYJKoZIhvcNAQELBQADgYEAb5hUprOw
gI5ECeoMI+zs8s4ppvOYuaD/ARc82sl4XFlP23gX04lp/ENvZzVC4XRdM/tzWohX
vwodTX53eMCZKK/9Sbz+2IfXBXThjZq3s+QbTQc3pIbt/Y3l7QKMSDtZzB3eYSaC
bjTXl/gKOpEBfxE9jbULcfnPE0pYN02axVc=
-----END CERTIFICATE-----
