-----BEGIN RSA PRIVATE KEY-----
MIICXwIBAAKBgQC89vgkNxe/1GmdiJgGQIPfEbtB7AQbdSW1Zhh4szTzFD5P4/of
NV7b3s/vwmRufwOu4J/CWhujeVOlbQ4jTEWhuqN0ZsGi4z7M/00ssOl2qDTLUk0u
voRjujLnLJlLqg0RwwwukOg3T/MB/QJKIjS5tUwd5WkiX1RVICVI1oIkJwIDAQAB
AoGBALl7Tjz2Gwi/7l+keV0BrK+kTwO5MJrnFXmGWpT3iwzjHPr8U0KY96Coh8DX
Ng/D+xCICikSm7iN2g4yCsOZFWqls38ixhfTBDA/z3hHx6b5tfSO4XSya08UXidR
6ExdmcsLEkL3eXD+WPSmUOphK8WfF1PNt6LC+pMbr/S1atWZAkEA81gFxt8TSMOl
Hi2hoopgCqx5PH50LiVfW8JSFL2RFfnOmoJQR8SKL4e/khgpFIBOBpgLN73zu7tU
1F6pIarSrQJBAMbK6+EsJvoS2NBXtMPFbV82kFiFQZMMo3fkWj5Uf7en3CDnkgnp
J729DAk+Dg4K3HF9g4vG8xQqZ8RdHNd2AKMCQQDuwhi47bsQE9X4bDFBN5/QGTXC
4xe/BzAu6dR7QRwPgdDyzJVUNUSYKgsOnuH/mXv1AE1RXfC866rpzA8KV37pAkEA
rBHDQMGt7zHXF+eC4R4HwK2DHgwiKX18FW/EKUWM01RpttWa1BdLvfFf9LQRCFig
XV/uOFP53c+iyBZsu5c5jwJBAMqRz1CP7U0c+Fvo2hZVPtUzkUZd1sqHdRbSzqol
uDkU+a2zkI+FG1IMmIb9uJBJ1tGK9Iyk2XYXCMckJiRrNB4=
-----END RSA PRIVATE KEY-----
Certificate:
    Data:
        Version: 3 (0x2)
        Serial Number: 8 (0x8)
    Signature Algorithm: sha256WithRSAEncryption
        Issuer: C=KR, CN=gilgil
        Validity
            Not Before: Mar  1 00:00:00 2014 GMT
            Not After : Feb 27 00:00:00 2024 GMT
        Subject: C=KR, CN=dpm.demdex.net
        Subject Public Key Info:
            Public Key Algorithm: rsaEncryption
                Public-Key: (1024 bit)
                Modulus:
                    00:bc:f6:f8:24:37:17:bf:d4:69:9d:88:98:06:40:
                    83:df:11:bb:41:ec:04:1b:75:25:b5:66:18:78:b3:
                    34:f3:14:3e:4f:e3:fa:1f:35:5e:db:de:cf:ef:c2:
                    64:6e:7f:03:ae:e0:9f:c2:5a:1b:a3:79:53:a5:6d:
                    0e:23:4c:45:a1:ba:a3:74:66:c1:a2:e3:3e:cc:ff:
                    4d:2c:b0:e9:76:a8:34:cb:52:4d:2e:be:84:63:ba:
                    32:e7:2c:99:4b:aa:0d:11:c3:0c:2e:90:e8:37:4f:
                    f3:01:fd:02:4a:22:34:b9:b5:4c:1d:e5:69:22:5f:
                    54:55:20:25:48:d6:82:24:27
                Exponent: 65537 (0x10001)
        X509v3 extensions:
            X509v3 Basic Constraints: 
                CA:FALSE
            Netscape Comment: 
                OpenSSL Generated Certificate
            X509v3 Subject Key Identifier: 
                DB:7E:17:CC:47:D5:94:29:A2:DA:49:00:9C:FB:13:85:53:A4:28:A9
            X509v3 Authority Key Identifier: 
                DirName:/C=KR/CN=gilgil
                serial:BC:FE:EF:E9:4A:BC:63:F0

    Signature Algorithm: sha256WithRSAEncryption
         0c:b2:05:27:43:31:c5:e6:51:6b:d1:9c:c7:c3:08:73:72:a7:
         72:07:95:82:ce:28:23:3c:20:59:0b:c8:2f:bf:6b:e3:4f:ca:
         ef:f0:fd:1f:52:2e:dc:d3:67:c3:4a:53:e6:ab:5e:f9:e9:e9:
         90:95:d5:2b:b1:7e:e6:3b:45:01:56:59:45:cc:b2:98:36:e4:
         c8:64:ec:5e:bf:84:e5:00:0d:17:0c:d6:e5:33:43:29:f2:f4:
         2f:da:9b:4a:77:dc:a4:91:91:0a:7a:84:35:45:27:81:70:69:
         af:32:8d:95:ee:85:32:9e:00:cc:65:bf:e1:4e:9f:60:32:84:
         84:8f
-----BEGIN CERTIFICATE-----
MIICVDCCAb2gAwIBAgIBCDANBgkqhkiG9w0BAQsFADAeMQswCQYDVQQGEwJLUjEP
MA0GA1UEAwwGZ2lsZ2lsMCIYDzIwMTQwMzAxMDAwMDAwWhgPMjAyNDAyMjcwMDAw
MDBaMCYxCzAJBgNVBAYTAktSMRcwFQYDVQQDDA5kcG0uZGVtZGV4Lm5ldDCBnzAN
BgkqhkiG9w0BAQEFAAOBjQAwgYkCgYEAvPb4JDcXv9RpnYiYBkCD3xG7QewEG3Ul
tWYYeLM08xQ+T+P6HzVe297P78Jkbn8DruCfwlobo3lTpW0OI0xFobqjdGbBouM+
zP9NLLDpdqg0y1JNLr6EY7oy5yyZS6oNEcMMLpDoN0/zAf0CSiI0ubVMHeVpIl9U
VSAlSNaCJCcCAwEAAaOBlTCBkjAJBgNVHRMEAjAAMCwGCWCGSAGG+EIBDQQfFh1P
cGVuU1NMIEdlbmVyYXRlZCBDZXJ0aWZpY2F0ZTAdBgNVHQ4EFgQU234XzEfVlCmi
2kkAnPsThVOkKKkwOAYDVR0jBDEwL6EipCAwHjELMAkGA1UEBhMCS1IxDzANBgNV
BAMMBmdpbGdpbIIJALz+7+lKvGPwMA0GCSqGSIb3DQEBCwUAA4GBAAyyBSdDMcXm
UWvRnMfDCHNyp3IHlYLOKCM8IFkLyC+/a+NPyu/w/R9SLtzTZ8NKU+arXvnp6ZCV
1SuxfuY7RQFWWUXMspg25Mhk7F6/hOUADRcM1uUzQyny9C/am0p33KSRkQp6hDVF
J4Fwaa8yjZXuhTKeAMxlv+FOn2AyhISP
-----END CERTIFICATE-----
