-----BEGIN RSA PRIVATE KEY-----
MIICXgIBAAKBgQDU7vUl2qRRU29FNdDZAdc9Xhn+W9ySZWE8Hm7wJD/k3iIMTzvZ
VkBDhu8Fff6mEGET36jpkwgxc9xsnyGYUAOZ39cTL9IDaTZ73WfXH9NfDwdkYJHT
j+eTH658YzjoA6fm9jtXIpHfDFGrCGIJ9FPYu1vLY4le/VlFKIwTUQfTzQIDAQAB
AoGAVVElkrRHUHqgw9drRfgR2PniamM+Pr42NpNvGfM8UqSaedopfcysVSI0lTvF
k55Od1sPX/9UshPdRvx/xnqQ5hRzfz9CeZ09u4xQyyGCMrToc2P47sS/eisLvury
e57KBtmH2rwe6O1DPS2UokR2cBQujGTP32H4A3pPIFhV36ECQQDxDl8XkTzIHOYZ
uDQpg1kdkVA7AmenioAgic55j0yQjqF8kD2AqkPMBqU0n6B/ECU+mzvIArs9Yeuu
GR0i2rmZAkEA4iJFVpnQqfBePj9musqgAZgojpzbs/hHm2vUA9W00t3xN/j0D1TV
jvdXrBAr+E3dNQg68/7w3cZgMTfYytJUVQJBAMTVYVyTIbidsF5MBXvoXvo/z+1/
Vzh9ZYYsQMcN9g0MClz2QuIvJdERlBDWT22xt1fZ1gTKBi5nKNUueJYfV/ECQQCu
CsJjDK9Um/Ns5U8jpJ/RmlJcsM1HjmdOb4cWDHzHbpohAjKVOi3DgwqvGyM8UHFY
R6VX9XdcuTl/qAPq1kahAkEA2zeQDxXk+A2jOSWp/fccbJtzGDNDu+OSsRPlvHLD
UBIUSzQ1ycZFToCiQQWxVnvabCey8Jq6Gt643nJ7LfsRRA==
-----END RSA PRIVATE KEY-----
Certificate:
    Data:
        Version: 3 (0x2)
        Serial Number: 1 (0x1)
    Signature Algorithm: sha256WithRSAEncryption
        Issuer: C=KR, CN=gilgil
        Validity
            Not Before: Mar  1 00:00:00 2014 GMT
            Not After : Feb 27 00:00:00 2024 GMT
        Subject: C=KR, CN=github.com
        Subject Public Key Info:
            Public Key Algorithm: rsaEncryption
                Public-Key: (1024 bit)
                Modulus:
                    00:d4:ee:f5:25:da:a4:51:53:6f:45:35:d0:d9:01:
                    d7:3d:5e:19:fe:5b:dc:92:65:61:3c:1e:6e:f0:24:
                    3f:e4:de:22:0c:4f:3b:d9:56:40:43:86:ef:05:7d:
                    fe:a6:10:61:13:df:a8:e9:93:08:31:73:dc:6c:9f:
                    21:98:50:03:99:df:d7:13:2f:d2:03:69:36:7b:dd:
                    67:d7:1f:d3:5f:0f:07:64:60:91:d3:8f:e7:93:1f:
                    ae:7c:63:38:e8:03:a7:e6:f6:3b:57:22:91:df:0c:
                    51:ab:08:62:09:f4:53:d8:bb:5b:cb:63:89:5e:fd:
                    59:45:28:8c:13:51:07:d3:cd
                Exponent: 65537 (0x10001)
        X509v3 extensions:
            X509v3 Basic Constraints: 
                CA:FALSE
            Netscape Comment: 
                OpenSSL Generated Certificate
            X509v3 Subject Key Identifier: 
                F4:B9:3B:A5:67:16:51:DB:EA:14:50:85:22:AC:C7:22:5E:41:03:49
            X509v3 Authority Key Identifier: 
                DirName:/C=KR/CN=gilgil
                serial:BC:FE:EF:E9:4A:BC:63:F0

    Signature Algorithm: sha256WithRSAEncryption
         bd:55:42:f2:65:ee:a6:46:30:ee:c9:6f:a8:6d:17:f6:15:a1:
         f6:f6:ac:2a:6f:c9:02:0a:e0:52:b6:85:6e:96:76:d7:d9:1b:
         6d:3e:3f:ac:1c:4f:bd:8f:c1:b3:1e:07:c9:e7:52:ff:14:01:
         7f:f0:5f:2b:6d:32:5c:5d:f0:64:71:01:06:3e:4f:8d:bb:d1:
         1e:55:c3:db:08:cd:71:f1:6a:16:15:9b:f5:c1:39:0b:da:c7:
         81:b6:c0:53:16:61:2e:99:08:8f:82:70:d5:cd:f4:3d:47:86:
         1a:8a:db:6e:dd:ff:24:b6:0f:40:c0:12:2c:a7:6d:ba:69:64:
         b3:3d
-----BEGIN CERTIFICATE-----
MIICUDCCAbmgAwIBAgIBATANBgkqhkiG9w0BAQsFADAeMQswCQYDVQQGEwJLUjEP
MA0GA1UEAwwGZ2lsZ2lsMCIYDzIwMTQwMzAxMDAwMDAwWhgPMjAyNDAyMjcwMDAw
MDBaMCIxCzAJBgNVBAYTAktSMRMwEQYDVQQDDApnaXRodWIuY29tMIGfMA0GCSqG
SIb3DQEBAQUAA4GNADCBiQKBgQDU7vUl2qRRU29FNdDZAdc9Xhn+W9ySZWE8Hm7w
JD/k3iIMTzvZVkBDhu8Fff6mEGET36jpkwgxc9xsnyGYUAOZ39cTL9IDaTZ73WfX
H9NfDwdkYJHTj+eTH658YzjoA6fm9jtXIpHfDFGrCGIJ9FPYu1vLY4le/VlFKIwT
UQfTzQIDAQABo4GVMIGSMAkGA1UdEwQCMAAwLAYJYIZIAYb4QgENBB8WHU9wZW5T
U0wgR2VuZXJhdGVkIENlcnRpZmljYXRlMB0GA1UdDgQWBBT0uTulZxZR2+oUUIUi
rMciXkEDSTA4BgNVHSMEMTAvoSKkIDAeMQswCQYDVQQGEwJLUjEPMA0GA1UEAwwG
Z2lsZ2lsggkAvP7v6Uq8Y/AwDQYJKoZIhvcNAQELBQADgYEAvVVC8mXupkYw7slv
qG0X9hWh9vasKm/JAgrgUraFbpZ219kbbT4/rBxPvY/Bsx4HyedS/xQBf/BfK20y
XF3wZHEBBj5PjbvRHlXD2wjNcfFqFhWb9cE5C9rHgbbAUxZhLpkIj4Jw1c30PUeG
Gorbbt3/JLYPQMASLKdtumlksz0=
-----END CERTIFICATE-----
