-----BEGIN RSA PRIVATE KEY-----
MIICWwIBAAKBgQC73gkSxb1+9XAM5MajSBCn7MTfSVFRWOVATkr1JBwDXO9pdwnX
7PFHYupS2p5cIs6BSRlbVC8R4fB0Pxvk0vz7E4lP/b8qIUlAES6hkkpfirNpzUh2
3rUVxmN5vpA7ZkfFcyCy7friI3FqctZWO4YN6W6/Q5LJyBE88J8YZkGcAQIDAQAB
AoGAbY4b6HCcAw+KGlrHY6zA2cx/Ol79Jt0aQ5fkqnQ2SdfGXdBnUx3/zktmro6C
zuQVXNuOB+5dzKXfnUq4L4bCs4BJgA3GKAiW4NpMoEUiXdWYWe93S0Scy80qopPQ
B1DCXFzQriBIzdgWObyx6ZNq73CvawHv536J+YH8I9Q8uYECQQDjtcI4Bq950Y9Z
u+zbrJZ+QG3tzXti8tZsCDxFhdJUeDvA4oYGIXE2sa8QdPjMsnoGEPXvN7YDnbh8
S0w9lR5JAkEA0zUYBOKgd+qErF9UjXGRvyzNENAMHAm67PELkQ6fdJZyTCpa7kKe
ZqxLWpXyGh1qTpNPD5xL+j45eP3l9Wnv+QJAUktM7ryTzF3NBewh1N5R4TzdvbSm
ZANJNO/hAGs1sWtmhPYY47xQUyjyEOuFQ005Rln418R1lmb41orL+fGbaQJAU/zA
AWlRYH4sphL+n4Ry7a/WGAJzXk7sOz6bV+KVvBn7d5g8MpThQnjvOiV4cbQSyw4/
GTkQ6YEG/7sPT+kBmQJAVmAtsy2+kufMn6sHZUGwzGY6OGzcW1b+U/fZyU6wb9oj
SksVWs7F4P534jJfDLV3tC1HWyGLE7WnUdsyM5tP8g==
-----END RSA PRIVATE KEY-----
Certificate:
    Data:
        Version: 3 (0x2)
        Serial Number: 13 (0xd)
    Signature Algorithm: sha256WithRSAEncryption
        Issuer: C=KR, CN=gilgil
        Validity
            Not Before: Mar  1 00:00:00 2014 GMT
            Not After : Feb 27 00:00:00 2024 GMT
        Subject: C=KR, CN=ib.adnxs.com
        Subject Public Key Info:
            Public Key Algorithm: rsaEncryption
                Public-Key: (1024 bit)
                Modulus:
                    00:bb:de:09:12:c5:bd:7e:f5:70:0c:e4:c6:a3:48:
                    10:a7:ec:c4:df:49:51:51:58:e5:40:4e:4a:f5:24:
                    1c:03:5c:ef:69:77:09:d7:ec:f1:47:62:ea:52:da:
                    9e:5c:22:ce:81:49:19:5b:54:2f:11:e1:f0:74:3f:
                    1b:e4:d2:fc:fb:13:89:4f:fd:bf:2a:21:49:40:11:
                    2e:a1:92:4a:5f:8a:b3:69:cd:48:76:de:b5:15:c6:
                    63:79:be:90:3b:66:47:c5:73:20:b2:ed:fa:e2:23:
                    71:6a:72:d6:56:3b:86:0d:e9:6e:bf:43:92:c9:c8:
                    11:3c:f0:9f:18:66:41:9c:01
                Exponent: 65537 (0x10001)
        X509v3 extensions:
            X509v3 Basic Constraints: 
                CA:FALSE
            Netscape Comment: 
                OpenSSL Generated Certificate
            X509v3 Subject Key Identifier: 
                C8:D7:D6:1D:8F:72:E4:6C:43:7B:7E:64:19:CC:95:3D:3F:98:9B:CF
            X509v3 Authority Key Identifier: 
                DirName:/C=KR/CN=gilgil
                serial:BC:FE:EF:E9:4A:BC:63:F0

    Signature Algorithm: sha256WithRSAEncryption
         b7:2c:6a:94:2b:b1:bb:8b:00:86:2e:24:36:ea:90:3e:db:c4:
         e9:36:cd:bb:cd:6e:f2:f6:e0:b9:21:99:75:fe:c9:e0:79:53:
         a4:90:f4:3f:9f:ac:d4:a9:0a:fc:b6:88:64:d0:f4:44:ce:cf:
         f6:01:40:e4:fc:2e:79:5b:59:3a:15:8a:a3:18:cd:0f:69:e5:
         87:af:5c:f1:d6:5c:2c:f7:68:d6:70:c0:66:49:a7:3d:b6:25:
         15:c2:a1:23:ed:74:c9:dd:7f:15:34:cb:5d:a8:04:21:e2:16:
         2c:f7:9e:e2:dd:2f:79:9c:03:71:2b:f0:23:6a:c1:4a:20:9f:
         e4:ec
-----BEGIN CERTIFICATE-----
MIICUjCCAbugAwIBAgIBDTANBgkqhkiG9w0BAQsFADAeMQswCQYDVQQGEwJLUjEP
MA0GA1UEAwwGZ2lsZ2lsMCIYDzIwMTQwMzAxMDAwMDAwWhgPMjAyNDAyMjcwMDAw
MDBaMCQxCzAJBgNVBAYTAktSMRUwEwYDVQQDDAxpYi5hZG54cy5jb20wgZ8wDQYJ
KoZIhvcNAQEBBQADgY0AMIGJAoGBALveCRLFvX71cAzkxqNIEKfsxN9JUVFY5UBO
SvUkHANc72l3Cdfs8Udi6lLanlwizoFJGVtULxHh8HQ/G+TS/PsTiU/9vyohSUAR
LqGSSl+Ks2nNSHbetRXGY3m+kDtmR8VzILLt+uIjcWpy1lY7hg3pbr9DksnIETzw
nxhmQZwBAgMBAAGjgZUwgZIwCQYDVR0TBAIwADAsBglghkgBhvhCAQ0EHxYdT3Bl
blNTTCBHZW5lcmF0ZWQgQ2VydGlmaWNhdGUwHQYDVR0OBBYEFMjX1h2PcuRsQ3t+
ZBnMlT0/mJvPMDgGA1UdIwQxMC+hIqQgMB4xCzAJBgNVBAYTAktSMQ8wDQYDVQQD
DAZnaWxnaWyCCQC8/u/pSrxj8DANBgkqhkiG9w0BAQsFAAOBgQC3LGqUK7G7iwCG
LiQ26pA+28TpNs27zW7y9uC5IZl1/sngeVOkkPQ/n6zUqQr8tohk0PREzs/2AUDk
/C55W1k6FYqjGM0PaeWHr1zx1lws92jWcMBmSac9tiUVwqEj7XTJ3X8VNMtdqAQh
4hYs957i3S95nANxK/AjasFKIJ/k7A==
-----END CERTIFICATE-----
