-----BEGIN RSA PRIVATE KEY-----
MIICXQIBAAKBgQDcBeXSi5Wx1IQw79VUs22d0RHGAKHs0D5VdQSFuMHRqu/196rn
hNV/TzLOp5pzRbGigTmjZfUVFPlUJYyE1UKp0+6wi/G5a7slZ6xGK4HKvJ08F00u
vCkVCY9y1748exu2OoHdHCkKuWlhgDWpbSOGrM5LwiaqDaQMw7eDiTkCLwIDAQAB
AoGAHGtCmSRgbHzHqk6AHpWidfz4L7wLLjxjoMQhlmgb2MocfofD8m2M6gm/xUOO
xo7c9+F7IWjc9CEmZ0EGWm31Ux7Ug6Kh1f1hb0jVTxijFbx64UHEJXN6NmlGzPbq
Mcc6LuxepnSbSZJgqZOL8VFQN/O87wvXRNQzgLuepPKCxaECQQD9cIDryzAYnF+1
I9VdVqFqKqsgtKDodcDkTtSZFsVdBkb6NC8VaAUqWzaMpXH96f2AxZfI2Jm5XckV
QdlegatfAkEA3j73P++ZC0g+kTfoai63/NA0OKHz59oaP0jWM4zsBWCFdmOrz5mc
Wz5QkP0IMD6MScu2CYFVkc6omI2J9EnrMQJBAKHH7lQWmXYsZB/yZuI1ScbGxASV
qV2axW44MBglZAlU13wiUaf9hcabAUBY4GJwusU33QN12PNuPc1XApYEeksCQC+g
FqPg2E8OoDnGXUvDzzGh/E7Whcn9dvpwxVYusLVGRdNk8ICATn1PETzAvGx6Ot3l
hZDr4kZonsByNEnhPUECQQCSOA0VlynKSPbYL1FH1jUJUem/+Lq8XAk53dv09iqx
G5KvMGzVhNzkcWmKmWqk5OjN+XTmNi4hDdfV8bHJnYz0
-----END RSA PRIVATE KEY-----
Certificate:
    Data:
        Version: 3 (0x2)
        Serial Number: 21 (0x15)
    Signature Algorithm: sha256WithRSAEncryption
        Issuer: C=KR, CN=gilgil
        Validity
            Not Before: Mar  1 00:00:00 2014 GMT
            Not After : Feb 27 00:00:00 2024 GMT
        Subject: C=KR, CN=idpix.media6degrees.com
        Subject Public Key Info:
            Public Key Algorithm: rsaEncryption
                Public-Key: (1024 bit)
                Modulus:
                    00:dc:05:e5:d2:8b:95:b1:d4:84:30:ef:d5:54:b3:
                    6d:9d:d1:11:c6:00:a1:ec:d0:3e:55:75:04:85:b8:
                    c1:d1:aa:ef:f5:f7:aa:e7:84:d5:7f:4f:32:ce:a7:
                    9a:73:45:b1:a2:81:39:a3:65:f5:15:14:f9:54:25:
                    8c:84:d5:42:a9:d3:ee:b0:8b:f1:b9:6b:bb:25:67:
                    ac:46:2b:81:ca:bc:9d:3c:17:4d:2e:bc:29:15:09:
                    8f:72:d7:be:3c:7b:1b:b6:3a:81:dd:1c:29:0a:b9:
                    69:61:80:35:a9:6d:23:86:ac:ce:4b:c2:26:aa:0d:
                    a4:0c:c3:b7:83:89:39:02:2f
                Exponent: 65537 (0x10001)
        X509v3 extensions:
            X509v3 Basic Constraints: 
                CA:FALSE
            Netscape Comment: 
                OpenSSL Generated Certificate
            X509v3 Subject Key Identifier: 
                BC:13:51:99:AF:B1:A9:8C:F3:3D:8F:78:78:50:9D:82:C5:F9:0C:7D
            X509v3 Authority Key Identifier: 
                DirName:/C=KR/CN=gilgil
                serial:BC:FE:EF:E9:4A:BC:63:F0

    Signature Algorithm: sha256WithRSAEncryption
         69:e5:51:f0:98:a2:c5:2e:db:59:78:8e:ee:5a:db:3a:35:dd:
         b6:ca:bb:17:19:e6:aa:a4:bb:6e:0c:e7:80:c4:51:1a:ee:1e:
         71:2d:b7:dd:7d:ee:ea:58:6c:6b:d9:e9:3d:3c:64:30:b0:30:
         1e:6a:d1:33:8f:72:db:07:c0:b9:83:1b:57:ce:a8:66:bc:c6:
         8a:67:57:73:4a:d2:5e:97:06:b8:65:0e:9c:1b:39:2b:43:81:
         8f:6a:9d:f7:50:02:ce:e1:fd:10:07:f2:3d:57:c1:96:a1:1c:
         c8:37:be:62:bb:47:4b:05:3c:d2:2b:06:87:da:d2:5c:4d:93:
         c9:66
-----BEGIN CERTIFICATE-----
MIICXTCCAcagAwIBAgIBFTANBgkqhkiG9w0BAQsFADAeMQswCQYDVQQGEwJLUjEP
MA0GA1UEAwwGZ2lsZ2lsMCIYDzIwMTQwMzAxMDAwMDAwWhgPMjAyNDAyMjcwMDAw
MDBaMC8xCzAJBgNVBAYTAktSMSAwHgYDVQQDDBdpZHBpeC5tZWRpYTZkZWdyZWVz
LmNvbTCBnzANBgkqhkiG9w0BAQEFAAOBjQAwgYkCgYEA3AXl0ouVsdSEMO/VVLNt
ndERxgCh7NA+VXUEhbjB0arv9feq54TVf08yzqeac0WxooE5o2X1FRT5VCWMhNVC
qdPusIvxuWu7JWesRiuByrydPBdNLrwpFQmPcte+PHsbtjqB3RwpCrlpYYA1qW0j
hqzOS8Imqg2kDMO3g4k5Ai8CAwEAAaOBlTCBkjAJBgNVHRMEAjAAMCwGCWCGSAGG
+EIBDQQfFh1PcGVuU1NMIEdlbmVyYXRlZCBDZXJ0aWZpY2F0ZTAdBgNVHQ4EFgQU
vBNRma+xqYzzPY94eFCdgsX5DH0wOAYDVR0jBDEwL6EipCAwHjELMAkGA1UEBhMC
S1IxDzANBgNVBAMMBmdpbGdpbIIJALz+7+lKvGPwMA0GCSqGSIb3DQEBCwUAA4GB
AGnlUfCYosUu21l4ju5a2zo13bbKuxcZ5qqku24M54DEURruHnEtt9197upYbGvZ
6T08ZDCwMB5q0TOPctsHwLmDG1fOqGa8xopnV3NK0l6XBrhlDpwbOStDgY9qnfdQ
As7h/RAH8j1XwZahHMg3vmK7R0sFPNIrBofa0lxNk8lm
-----END CERTIFICATE-----
