-----BEGIN RSA PRIVATE KEY-----
MIICXgIBAAKBgQDbBPlNKhgjpS1uUpCZYEv8WR5AmXXIQN1QjvFEMzGeIhJOPj7O
p7k96EAwYPPHwYf+3ic2gQsWEBoznQUtH8kfPqP417xMSO+aLdHxR6pbouUSJXr2
lX24dgGN1xJ1Aq7VZrYvLaBn/Qbq7N4JIbu9HcezYTkEuji0b3o2YE/9XwIDAQAB
AoGAD6WZUePx+YnxZvJLFkoE47BSMvdDrNzFct3jaqXlo5B3klNsFUNyPnP7Mfmb
MOgomRKx5njtm9Pmq01Kc2DT81+jLmqt5vQJLY3rF+UQW5JMmp01WCgNhzc1ObSK
SWeb7Tx2EPWqlNzm4JscNDKh9OTD7Tds2MvBNhRLaPCTf/ECQQDz5Xz989azhEN5
HtC+14AlylSoX3SWAQK3t06R2lH5L9Ddd1sfhqMBPdmT8oIuFRBh1mE5eYu1YyiZ
8ZzcA4KrAkEA5eNxXDnhaTuSropZD/j8zlh5zuhBSvWWUXUseWHN2vKPSU+XYLBS
hGJNDkuwIgJXEdnPgvJPilsv5MMJfz6QHQJBAJXo5mzJZZwtnbNix3elybRwqpxb
H7Pbpyn416g6gswhIcYeSLoV7TckJwoSswVUGR+pv1Suarrw2dHVek6ZMcUCQQCa
U+HaJBEq8A88lSvNCT3N2J+NQ2XxyIStEphUtE/Z2FRQxtm80yHSNZu9KRqI+kEx
fqNMKRc0rpqsXDKX9YwRAkEA8iGv7YYHHIAHgfQ7UdEt5X/lMXtRnJxbIIPJVkJc
rchdGjDCJ/oRHeS9QTtV/6nHu4ik7Np+Zh/ZsZLWgf/DAA==
-----END RSA PRIVATE KEY-----
Certificate:
    Data:
        Version: 3 (0x2)
        Serial Number: 5 (0x5)
    Signature Algorithm: sha256WithRSAEncryption
        Issuer: C=KR, CN=gilgil
        Validity
            Not Before: Mar  1 00:00:00 2014 GMT
            Not After : Feb 27 00:00:00 2024 GMT
        Subject: C=KR, CN=img-prod-cms-rt-microsoft-com.akamaized.net
        Subject Public Key Info:
            Public Key Algorithm: rsaEncryption
                Public-Key: (1024 bit)
                Modulus:
                    00:db:04:f9:4d:2a:18:23:a5:2d:6e:52:90:99:60:
                    4b:fc:59:1e:40:99:75:c8:40:dd:50:8e:f1:44:33:
                    31:9e:22:12:4e:3e:3e:ce:a7:b9:3d:e8:40:30:60:
                    f3:c7:c1:87:fe:de:27:36:81:0b:16:10:1a:33:9d:
                    05:2d:1f:c9:1f:3e:a3:f8:d7:bc:4c:48:ef:9a:2d:
                    d1:f1:47:aa:5b:a2:e5:12:25:7a:f6:95:7d:b8:76:
                    01:8d:d7:12:75:02:ae:d5:66:b6:2f:2d:a0:67:fd:
                    06:ea:ec:de:09:21:bb:bd:1d:c7:b3:61:39:04:ba:
                    38:b4:6f:7a:36:60:4f:fd:5f
                Exponent: 65537 (0x10001)
        X509v3 extensions:
            X509v3 Basic Constraints: 
                CA:FALSE
            Netscape Comment: 
                OpenSSL Generated Certificate
            X509v3 Subject Key Identifier: 
                B4:48:87:7E:22:1E:D7:2F:8E:97:1D:D3:FE:D1:C5:C0:3A:3D:35:73
            X509v3 Authority Key Identifier: 
                DirName:/C=KR/CN=gilgil
                serial:BC:FE:EF:E9:4A:BC:63:F0

    Signature Algorithm: sha256WithRSAEncryption
         58:c9:9f:f3:e4:c9:4d:ff:fd:a5:00:00:61:3c:57:4a:8d:aa:
         67:1b:53:ed:82:8c:a8:89:2c:98:af:26:32:18:68:41:96:a0:
         fc:fb:c3:5e:8f:e9:c4:bd:bd:79:d1:10:a6:90:eb:5b:8d:b7:
         6f:67:73:35:88:b1:80:60:86:ec:15:90:38:e0:eb:a3:32:d0:
         c3:d1:70:81:d9:5e:de:e0:01:f2:85:a4:4f:e8:e9:f3:9d:bf:
         5f:27:31:95:a4:c8:cf:ce:e9:f4:d1:d9:10:fd:86:4d:4c:d3:
         66:49:8a:1e:b3:fe:7c:fa:e2:4b:29:96:b6:08:14:2e:70:8d:
         80:7c
-----BEGIN CERTIFICATE-----
MIICcTCCAdqgAwIBAgIBBTANBgkqhkiG9w0BAQsFADAeMQswCQYDVQQGEwJLUjEP
MA0GA1UEAwwGZ2lsZ2lsMCIYDzIwMTQwMzAxMDAwMDAwWhgPMjAyNDAyMjcwMDAw
MDBaMEMxCzAJBgNVBAYTAktSMTQwMgYDVQQDDCtpbWctcHJvZC1jbXMtcnQtbWlj
cm9zb2Z0LWNvbS5ha2FtYWl6ZWQubmV0MIGfMA0GCSqGSIb3DQEBAQUAA4GNADCB
iQKBgQDbBPlNKhgjpS1uUpCZYEv8WR5AmXXIQN1QjvFEMzGeIhJOPj7Op7k96EAw
YPPHwYf+3ic2gQsWEBoznQUtH8kfPqP417xMSO+aLdHxR6pbouUSJXr2lX24dgGN
1xJ1Aq7VZrYvLaBn/Qbq7N4JIbu9HcezYTkEuji0b3o2YE/9XwIDAQABo4GVMIGS
MAkGA1UdEwQCMAAwLAYJYIZIAYb4QgENBB8WHU9wZW5TU0wgR2VuZXJhdGVkIENl
cnRpZmljYXRlMB0GA1UdDgQWBBS0SId+Ih7XL46XHdP+0cXAOj01czA4BgNVHSME
MTAvoSKkIDAeMQswCQYDVQQGEwJLUjEPMA0GA1UEAwwGZ2lsZ2lsggkAvP7v6Uq8
Y/AwDQYJKoZIhvcNAQELBQADgYEAWMmf8+TJTf/9pQAAYTxXSo2qZxtT7YKMqIks
mK8mMhhoQZag/PvDXo/pxL29edEQppDrW423b2dzNYixgGCG7BWQOODrozLQw9Fw
gdle3uAB8oWkT+jp852/XycxlaTIz87p9NHZEP2GTUzTZkmKHrP+fPriSymWtggU
LnCNgHw=
-----END CERTIFICATE-----
