-----BEGIN RSA PRIVATE KEY-----
MIICXAIBAAKBgQCqCH3xOTOpt/nofjBipjX2N6u9oSTFwzXm98x7ae5zdLloDKdl
Egph0g0Q9GRhznEVPCunwnOGLEHDA3dbH3xdWEFco3+uRKzKLaB5GLo6dFRFceKm
DrLnahyE7fYB6shonMwYCucy7Bj99g7H56IfayouzAYWXBbw+yJOtNYxdwIDAQAB
AoGAQDXWwbq1TNliMa89vHNCG4oofAMXrOssNt3LRavaVZV10to8eMmYTBqTvpxc
MCdSww8m+UJQeBHMf8WWVD4Oq1/qmpwxdlGok5YaD89aGf4xZ05EDyfi5nR/Eoe6
2dQx531oU0YsxSY4upaoKa/CP9C9KCS6cO8Ix4FGkEyJRskCQQDTUmdw3CH7kMuO
wDr8TUfHUqDcFSa+9sTO8dw64O2S4NTKhyGxcq5jJcXdtojatVHFY3O4cFX1WEnH
CbW6x6IlAkEAzftgFTsEn+0ntbASfJqHnSfRIRQ0GhSszmTvm9NOtphQ1NODpCsX
/JXTkc4HNxZT88eR4M0K/wzzVWxbK9X8awJAOfJnwQ/sFaKf3vYhdpvuad7jk1YN
eOIMF79Ep7SUEOmsEBk8CP+siC2Mc36hSm/cC2d5DQNo3s0l9flYpu4lLQJBAINz
yP3DjFADqTPqCeI7PBCvOGdD3XxHdYDCKafoUnN1ASDRW1GJruUjOMH0Geat+SW6
Vv5/3GSofyIk5Io1JcECQGolkzsTRuUMSooX7J66wO1o0LAYzqfWyYYTXKiqVJw9
glIAIILCjjkONqHHj5HsT4SuHTjTYfbZjFuBpc+ov4U=
-----END RSA PRIVATE KEY-----
Certificate:
    Data:
        Version: 3 (0x2)
        Serial Number: 14 (0xe)
    Signature Algorithm: sha256WithRSAEncryption
        Issuer: C=KR, CN=gilgil
        Validity
            Not Before: Mar  1 00:00:00 2014 GMT
            Not After : Feb 27 00:00:00 2024 GMT
        Subject: C=KR, CN=img1.daumcdn.net
        Subject Public Key Info:
            Public Key Algorithm: rsaEncryption
                Public-Key: (1024 bit)
                Modulus:
                    00:aa:08:7d:f1:39:33:a9:b7:f9:e8:7e:30:62:a6:
                    35:f6:37:ab:bd:a1:24:c5:c3:35:e6:f7:cc:7b:69:
                    ee:73:74:b9:68:0c:a7:65:12:0a:61:d2:0d:10:f4:
                    64:61:ce:71:15:3c:2b:a7:c2:73:86:2c:41:c3:03:
                    77:5b:1f:7c:5d:58:41:5c:a3:7f:ae:44:ac:ca:2d:
                    a0:79:18:ba:3a:74:54:45:71:e2:a6:0e:b2:e7:6a:
                    1c:84:ed:f6:01:ea:c8:68:9c:cc:18:0a:e7:32:ec:
                    18:fd:f6:0e:c7:e7:a2:1f:6b:2a:2e:cc:06:16:5c:
                    16:f0:fb:22:4e:b4:d6:31:77
                Exponent: 65537 (0x10001)
        X509v3 extensions:
            X509v3 Basic Constraints: 
                CA:FALSE
            Netscape Comment: 
                OpenSSL Generated Certificate
            X509v3 Subject Key Identifier: 
                5B:56:D8:EB:87:7C:9E:4A:BD:D7:96:02:65:14:A8:98:45:24:FF:B8
            X509v3 Authority Key Identifier: 
                DirName:/C=KR/CN=gilgil
                serial:BC:FE:EF:E9:4A:BC:63:F0

    Signature Algorithm: sha256WithRSAEncryption
         6b:1c:21:5b:a1:d3:7c:da:11:62:b1:dc:b4:12:f6:8c:c7:20:
         9c:d6:15:28:bf:b5:fb:66:66:1e:06:91:2f:05:5e:bb:c8:c5:
         d1:91:6c:3a:43:68:60:a5:77:04:3c:83:da:bb:56:8a:4f:0d:
         54:5f:9f:dc:18:fd:77:ee:05:d0:53:3c:8d:a5:8b:a5:dc:8a:
         b5:03:e2:00:37:76:e4:c2:5b:78:9e:f1:43:8f:93:00:bd:30:
         cd:f5:a6:b9:d1:47:6c:51:4f:be:64:ec:71:f2:17:ad:ad:ba:
         5a:c9:09:ca:ff:51:77:4d:83:99:7f:6f:5d:21:4c:af:e2:81:
         72:f8
-----BEGIN CERTIFICATE-----
MIICVjCCAb+gAwIBAgIBDjANBgkqhkiG9w0BAQsFADAeMQswCQYDVQQGEwJLUjEP
MA0GA1UEAwwGZ2lsZ2lsMCIYDzIwMTQwMzAxMDAwMDAwWhgPMjAyNDAyMjcwMDAw
MDBaMCgxCzAJBgNVBAYTAktSMRkwFwYDVQQDDBBpbWcxLmRhdW1jZG4ubmV0MIGf
MA0GCSqGSIb3DQEBAQUAA4GNADCBiQKBgQCqCH3xOTOpt/nofjBipjX2N6u9oSTF
wzXm98x7ae5zdLloDKdlEgph0g0Q9GRhznEVPCunwnOGLEHDA3dbH3xdWEFco3+u
RKzKLaB5GLo6dFRFceKmDrLnahyE7fYB6shonMwYCucy7Bj99g7H56IfayouzAYW
XBbw+yJOtNYxdwIDAQABo4GVMIGSMAkGA1UdEwQCMAAwLAYJYIZIAYb4QgENBB8W
HU9wZW5TU0wgR2VuZXJhdGVkIENlcnRpZmljYXRlMB0GA1UdDgQWBBRbVtjrh3ye
Sr3XlgJlFKiYRST/uDA4BgNVHSMEMTAvoSKkIDAeMQswCQYDVQQGEwJLUjEPMA0G
A1UEAwwGZ2lsZ2lsggkAvP7v6Uq8Y/AwDQYJKoZIhvcNAQELBQADgYEAaxwhW6HT
fNoRYrHctBL2jMcgnNYVKL+1+2ZmHgaRLwVeu8jF0ZFsOkNoYKV3BDyD2rtWik8N
VF+f3Bj9d+4F0FM8jaWLpdyKtQPiADd25MJbeJ7xQ4+TAL0wzfWmudFHbFFPvmTs
cfIXra26WskJyv9Rd02DmX9vXSFMr+KBcvg=
-----END CERTIFICATE-----
