-----BEGIN RSA PRIVATE KEY-----
MIICWwIBAAKBgQCfTPnfHFK8SMhduSvjgjUN/et3L/NuVzuu4iwO1XaOioA5AmYO
B5D7moZ1BYORmYs+5CXkC9FNWsRw23dpcaWUySUAaEcqCUJwTTiiKsLqxPZOm1wS
Rcw/y01P+VA5+r52JCvfFoiRq9b6smuSxre4vvxDPIWVw8vc+TjKNJtVDQIDAQAB
AoGAUALkuhhKwgE4ikKYdbQPm9B+tSWjejdcZdF52ZWD78JG9ttqkP9h5c3OXPaB
B998HgGPuoPpA5Zkdl71EkQfqtmj69sonT5z0JyNygi3a8+ZK18orSl9cubc1csj
95eVaGH6iFG3fjzT0Da3PrNsCZHXId93mI480C/SIwvuNoECQQDKpukHk6ifRoCW
OVyk8Va2ALEnj3BdTGeAbeGfXbg/m2yHZRDPRHr5eiuyFxm+0NbhKVj2Yu81cXpG
3uKzuI8tAkEAyTyKsE/kkG8PkywsFGyqeNRqKNnH9d8OrPHLqWCGMtWztAHu2tir
1B9oZLaz2hi53KLkv16WvRk7sH1sbAaJYQJAYmY1VHaANAZ5vXfQ4k5FOk6PtpPR
jZvhzdyM52MMaeZABmYuiVXJGIYX3XuWBq9FB0OabNiRKjQVmX/0OCvvaQJAWpKm
NW7wB9YE44+5E0RJgfLRCSvkJRTNLSfzK3vnStAGftlz4QouZF3yhYn57wq79MNY
Q43WOKw3wlrhRsm2YQJABU2o2ctCzv1a0ayabf3VeNkOsmRB6ye+l2OYg7IblGyw
upexa8lkFAt92pujfVFrw4xbsxhsvNH0aLRwCL93vg==
-----END RSA PRIVATE KEY-----
Certificate:
    Data:
        Version: 3 (0x2)
        Serial Number: 6 (0x6)
    Signature Algorithm: sha256WithRSAEncryption
        Issuer: C=KR, CN=gilgil
        Validity
            Not Before: Mar  1 00:00:00 2014 GMT
            Not After : Feb 27 00:00:00 2024 GMT
        Subject: C=KR, CN=img2.daumcdn.net
        Subject Public Key Info:
            Public Key Algorithm: rsaEncryption
                Public-Key: (1024 bit)
                Modulus:
                    00:9f:4c:f9:df:1c:52:bc:48:c8:5d:b9:2b:e3:82:
                    35:0d:fd:eb:77:2f:f3:6e:57:3b:ae:e2:2c:0e:d5:
                    76:8e:8a:80:39:02:66:0e:07:90:fb:9a:86:75:05:
                    83:91:99:8b:3e:e4:25:e4:0b:d1:4d:5a:c4:70:db:
                    77:69:71:a5:94:c9:25:00:68:47:2a:09:42:70:4d:
                    38:a2:2a:c2:ea:c4:f6:4e:9b:5c:12:45:cc:3f:cb:
                    4d:4f:f9:50:39:fa:be:76:24:2b:df:16:88:91:ab:
                    d6:fa:b2:6b:92:c6:b7:b8:be:fc:43:3c:85:95:c3:
                    cb:dc:f9:38:ca:34:9b:55:0d
                Exponent: 65537 (0x10001)
        X509v3 extensions:
            X509v3 Basic Constraints: 
                CA:FALSE
            Netscape Comment: 
                OpenSSL Generated Certificate
            X509v3 Subject Key Identifier: 
                28:00:E1:38:67:9B:2A:B4:FA:C7:1A:BC:E8:FC:01:06:69:BE:21:13
            X509v3 Authority Key Identifier: 
                DirName:/C=KR/CN=gilgil
                serial:BC:FE:EF:E9:4A:BC:63:F0

    Signature Algorithm: sha256WithRSAEncryption
         01:b3:34:6d:dd:14:43:f8:1b:c9:fa:85:95:8f:90:8e:eb:b0:
         75:e9:1c:ff:b4:12:f9:e4:db:ce:3a:dd:22:32:0f:1c:74:fc:
         58:15:03:19:82:61:21:4f:3c:03:82:7b:6c:a5:5f:7c:82:05:
         5f:b4:8e:41:da:4b:b8:c2:50:e0:06:91:66:38:d5:74:0a:bf:
         c4:c3:ef:dc:b5:a8:ce:e4:87:d3:b3:ec:16:3b:67:4d:d1:72:
         90:24:06:99:bf:f6:e1:d4:b7:92:f7:ab:02:d3:ac:14:9f:b1:
         36:af:9a:3f:00:0c:2f:04:bc:42:af:0b:08:f9:d2:11:6d:8b:
         44:a9
-----BEGIN CERTIFICATE-----
MIICVjCCAb+gAwIBAgIBBjANBgkqhkiG9w0BAQsFADAeMQswCQYDVQQGEwJLUjEP
MA0GA1UEAwwGZ2lsZ2lsMCIYDzIwMTQwMzAxMDAwMDAwWhgPMjAyNDAyMjcwMDAw
MDBaMCgxCzAJBgNVBAYTAktSMRkwFwYDVQQDDBBpbWcyLmRhdW1jZG4ubmV0MIGf
MA0GCSqGSIb3DQEBAQUAA4GNADCBiQKBgQCfTPnfHFK8SMhduSvjgjUN/et3L/Nu
Vzuu4iwO1XaOioA5AmYOB5D7moZ1BYORmYs+5CXkC9FNWsRw23dpcaWUySUAaEcq
CUJwTTiiKsLqxPZOm1wSRcw/y01P+VA5+r52JCvfFoiRq9b6smuSxre4vvxDPIWV
w8vc+TjKNJtVDQIDAQABo4GVMIGSMAkGA1UdEwQCMAAwLAYJYIZIAYb4QgENBB8W
HU9wZW5TU0wgR2VuZXJhdGVkIENlcnRpZmljYXRlMB0GA1UdDgQWBBQoAOE4Z5sq
tPrHGrzo/AEGab4hEzA4BgNVHSMEMTAvoSKkIDAeMQswCQYDVQQGEwJLUjEPMA0G
A1UEAwwGZ2lsZ2lsggkAvP7v6Uq8Y/AwDQYJKoZIhvcNAQELBQADgYEAAbM0bd0U
Q/gbyfqFlY+Qjuuwdekc/7QS+eTbzjrdIjIPHHT8WBUDGYJhIU88A4J7bKVffIIF
X7SOQdpLuMJQ4AaRZjjVdAq/xMPv3LWozuSH07PsFjtnTdFykCQGmb/24dS3kver
AtOsFJ+xNq+aPwAMLwS8Qq8LCPnSEW2LRKk=
-----END CERTIFICATE-----
