-----BEGIN RSA PRIVATE KEY-----
MIICXAIBAAKBgQDhbzjjkChwKm++9/sIObxN+4wP/No2MDSEkVC+LEqk6BN+Coqr
/1DSWifFAFjrVR+MRbjL3pfWVlpi+yQ6HieYs7rjicWibhajYclrfT+hcpzX+zeL
QR9XSe9fYcubySQwmPlqVt/FgxND39/s5Q2vPA2OamFMyI4zhp4tQc6DSQIDAQAB
AoGAcm93PW1MWcPw/cv8DmzgfeWXb/Y2/xLxVeo+RotNSPDWFEFdq3nrmRxS29oV
SUDoxtgNus+/2/nx4BUEiswL5LAq1DrKwE2n5ZzfD13yNEa0TDL4C7hRAjC+YAxB
kJsv7/XPnnV9D6fPq5Z/YgWj6XtJ6b2HfqBa4jkrP42pURECQQD4528baIUPo8oh
n2v2iMtIUeSHJwVGABDns/Ctv06fMr1uJF36lvmva6sx03Qz2vfDAOU4htsmslrE
8ni4y/a/AkEA59yATMJrdJviatIGsLeeqUm6bE5XIWhEPxOgm9ehMDfZ3iliYgtB
7JeIoGvDa0AVBTpM26irvyZoWKruHkHP9wJBAMUdm2sMShxJrSEVfM3AJaT/Xcj+
yPlXwguNADTJBX2kFEquuFJk0BXxYaFTAXqzlXU0N1Od0N6Dbsj78UkAFkcCQFKC
m321ajvzBV3yI8NbdLDVteu47TTMQA0aVPtgftID7horLAGr8+fX/RzpfH98LH7R
wmwg2A2MA3IaUeaekP0CQH5V4zUXABvAqzhO/9Hp1nOkcs6NIiqmoc/G6uGZ/29q
nmHDpL5V50+2NVGn1MWYboyIhB25bH9H8GNEsOGGruQ=
-----END RSA PRIVATE KEY-----
Certificate:
    Data:
        Version: 3 (0x2)
        Serial Number: 2 (0x2)
    Signature Algorithm: sha256WithRSAEncryption
        Issuer: C=KR, CN=gilgil
        Validity
            Not Before: Mar  1 00:00:00 2014 GMT
            Not After : Feb 27 00:00:00 2024 GMT
        Subject: C=KR, CN=lcs.naver.com
        Subject Public Key Info:
            Public Key Algorithm: rsaEncryption
                Public-Key: (1024 bit)
                Modulus:
                    00:e1:6f:38:e3:90:28:70:2a:6f:be:f7:fb:08:39:
                    bc:4d:fb:8c:0f:fc:da:36:30:34:84:91:50:be:2c:
                    4a:a4:e8:13:7e:0a:8a:ab:ff:50:d2:5a:27:c5:00:
                    58:eb:55:1f:8c:45:b8:cb:de:97:d6:56:5a:62:fb:
                    24:3a:1e:27:98:b3:ba:e3:89:c5:a2:6e:16:a3:61:
                    c9:6b:7d:3f:a1:72:9c:d7:fb:37:8b:41:1f:57:49:
                    ef:5f:61:cb:9b:c9:24:30:98:f9:6a:56:df:c5:83:
                    13:43:df:df:ec:e5:0d:af:3c:0d:8e:6a:61:4c:c8:
                    8e:33:86:9e:2d:41:ce:83:49
                Exponent: 65537 (0x10001)
        X509v3 extensions:
            X509v3 Basic Constraints: 
                CA:FALSE
            Netscape Comment: 
                OpenSSL Generated Certificate
            X509v3 Subject Key Identifier: 
                94:DC:42:17:11:AD:F9:24:43:6A:73:F2:38:A7:CA:D2:52:B2:71:D2
            X509v3 Authority Key Identifier: 
                DirName:/C=KR/CN=gilgil
                serial:BC:FE:EF:E9:4A:BC:63:F0

    Signature Algorithm: sha256WithRSAEncryption
         a9:f2:eb:b3:ee:46:b8:0a:a7:c5:11:23:d1:f7:49:06:b0:cb:
         42:d0:9b:e8:c6:92:fa:8a:25:29:26:b6:d5:e7:05:0f:2f:cb:
         e3:6f:62:34:0d:78:f8:60:b7:8b:b8:a4:fc:e8:f4:f3:b0:14:
         45:c2:61:a5:38:a8:25:23:c2:d2:d8:11:43:94:47:d3:51:d4:
         17:d6:12:8d:06:60:48:54:cb:b8:99:5a:d5:d2:f8:d3:02:2f:
         f9:39:73:54:f1:7c:fc:b9:9c:f2:e7:56:18:16:4c:d8:ca:57:
         54:cb:71:6d:83:73:f1:5b:5b:ae:58:5f:12:e4:21:0f:9b:9d:
         98:74
-----BEGIN CERTIFICATE-----
MIICUzCCAbygAwIBAgIBAjANBgkqhkiG9w0BAQsFADAeMQswCQYDVQQGEwJLUjEP
MA0GA1UEAwwGZ2lsZ2lsMCIYDzIwMTQwMzAxMDAwMDAwWhgPMjAyNDAyMjcwMDAw
MDBaMCUxCzAJBgNVBAYTAktSMRYwFAYDVQQDDA1sY3MubmF2ZXIuY29tMIGfMA0G
CSqGSIb3DQEBAQUAA4GNADCBiQKBgQDhbzjjkChwKm++9/sIObxN+4wP/No2MDSE
kVC+LEqk6BN+Coqr/1DSWifFAFjrVR+MRbjL3pfWVlpi+yQ6HieYs7rjicWibhaj
YclrfT+hcpzX+zeLQR9XSe9fYcubySQwmPlqVt/FgxND39/s5Q2vPA2OamFMyI4z
hp4tQc6DSQIDAQABo4GVMIGSMAkGA1UdEwQCMAAwLAYJYIZIAYb4QgENBB8WHU9w
ZW5TU0wgR2VuZXJhdGVkIENlcnRpZmljYXRlMB0GA1UdDgQWBBSU3EIXEa35JENq
c/I4p8rSUrJx0jA4BgNVHSMEMTAvoSKkIDAeMQswCQYDVQQGEwJLUjEPMA0GA1UE
AwwGZ2lsZ2lsggkAvP7v6Uq8Y/AwDQYJKoZIhvcNAQELBQADgYEAqfLrs+5GuAqn
xREj0fdJBrDLQtCb6MaS+oolKSa21ecFDy/L429iNA14+GC3i7ik/Oj087AURcJh
pTioJSPC0tgRQ5RH01HUF9YSjQZgSFTLuJla1dL40wIv+TlzVPF8/Lmc8udWGBZM
2MpXVMtxbYNz8VtbrlhfEuQhD5udmHQ=
-----END CERTIFICATE-----
