-----BEGIN RSA PRIVATE KEY-----
MIICWwIBAAKBgQDNg7A4TlXP7EqcSK7HFPVtfDa07m4ZnXxT+pY4bmqfN5XcFqV0
wZ2DDL3k3twJTb0JjyfEcSp1QGMiTOkdhEc9kxpRpoW6q7p+XypFdBY7HkW5KHd8
bsRiac2yfoEqNUrZDwSQS/Jlt3WoMoaeBzITX0+//qGcOCnV9IaGXnkeSQIDAQAB
AoGAL7cTgv8tDUlfSUnWyoIjOXhNe1SgW3IlG5pipld8idruAFuBrsoFOBgNPsY/
cCmMalvCb+mWYgLBAYW52hCMOWUbOX6nGTo0oQIyHCCG38iqOksKgdwG5TLTFj9O
wVkxBbM8tTnOTofXIxhlhh2CVXvIpwgqSsHxU8cHCyDmxwECQQDmKiA3KSLZC1XR
alK8+HwmuLiKBgdvWd0MN9EVr7g7SgSb/GWpDEb9UlTxmh319d89BiaUusJ0N8qC
WFgbOnGdAkEA5JU69a18nOHYwjB/dR0zzaho+eMbhD+y9uJydnZypoOszoQe85i4
3qcLYzw0pJv8LIxPpEs1n2bG7l1AtADlnQJAQhhuz+hcPX/n0Q97WxDwdh4twFUi
5XMk61FMFbI0cbI7yJ+eggEoka6G/iqH2A4XYWrWwXcwSDeNTAkapBcQcQJAHEXA
9yYwJY9hqhMpkKi+AY/0/AN1IdRnJFY55iEcaTAcLab11Rdstk1fATUvJbUNac0p
BJ8w0Lh7nnv2Rs1dmQJABm30fqPavPwmPMvVBpPvu/E4GHb1gvwkrW0V0iNzITZn
plN7fNlmiw9SG96/Y3/swFG6Jp34Xc1T7fVvoyADPQ==
-----END RSA PRIVATE KEY-----
Certificate:
    Data:
        Version: 3 (0x2)
        Serial Number: 3 (0x3)
    Signature Algorithm: sha256WithRSAEncryption
        Issuer: C=KR, CN=gilgil
        Validity
            Not Before: Mar  1 00:00:00 2014 GMT
            Not After : Feb 27 00:00:00 2024 GMT
        Subject: C=KR, CN=lcs.naver.com
        Subject Public Key Info:
            Public Key Algorithm: rsaEncryption
                Public-Key: (1024 bit)
                Modulus:
                    00:cd:83:b0:38:4e:55:cf:ec:4a:9c:48:ae:c7:14:
                    f5:6d:7c:36:b4:ee:6e:19:9d:7c:53:fa:96:38:6e:
                    6a:9f:37:95:dc:16:a5:74:c1:9d:83:0c:bd:e4:de:
                    dc:09:4d:bd:09:8f:27:c4:71:2a:75:40:63:22:4c:
                    e9:1d:84:47:3d:93:1a:51:a6:85:ba:ab:ba:7e:5f:
                    2a:45:74:16:3b:1e:45:b9:28:77:7c:6e:c4:62:69:
                    cd:b2:7e:81:2a:35:4a:d9:0f:04:90:4b:f2:65:b7:
                    75:a8:32:86:9e:07:32:13:5f:4f:bf:fe:a1:9c:38:
                    29:d5:f4:86:86:5e:79:1e:49
                Exponent: 65537 (0x10001)
        X509v3 extensions:
            X509v3 Basic Constraints: 
                CA:FALSE
            Netscape Comment: 
                OpenSSL Generated Certificate
            X509v3 Subject Key Identifier: 
                A3:DD:42:56:9C:1B:36:3E:F2:40:44:2B:5C:25:54:EE:3A:24:6F:B5
            X509v3 Authority Key Identifier: 
                DirName:/C=KR/CN=gilgil
                serial:BC:FE:EF:E9:4A:BC:63:F0

    Signature Algorithm: sha256WithRSAEncryption
         29:86:0f:fd:56:43:98:9e:29:a7:6a:31:5e:9f:0b:e9:bb:1b:
         15:bd:e6:9d:2a:bd:63:2f:54:f2:5e:eb:59:9d:36:cd:a1:cd:
         2e:af:62:74:a2:47:d2:f5:57:b3:7f:db:d3:79:92:31:38:f5:
         f4:81:f3:87:a7:25:66:64:ca:55:4a:7c:71:d6:16:57:15:fa:
         8a:6d:71:67:27:c3:0c:c0:1d:66:ff:d9:c6:02:01:d4:25:41:
         2d:e5:8f:72:bc:b0:c2:15:a7:24:9f:53:91:68:ad:ec:17:af:
         39:b3:51:b6:26:09:23:63:48:3a:eb:8f:c2:d7:a5:ce:55:37:
         d7:f1
-----BEGIN CERTIFICATE-----
MIICUzCCAbygAwIBAgIBAzANBgkqhkiG9w0BAQsFADAeMQswCQYDVQQGEwJLUjEP
MA0GA1UEAwwGZ2lsZ2lsMCIYDzIwMTQwMzAxMDAwMDAwWhgPMjAyNDAyMjcwMDAw
MDBaMCUxCzAJBgNVBAYTAktSMRYwFAYDVQQDDA1sY3MubmF2ZXIuY29tMIGfMA0G
CSqGSIb3DQEBAQUAA4GNADCBiQKBgQDNg7A4TlXP7EqcSK7HFPVtfDa07m4ZnXxT
+pY4bmqfN5XcFqV0wZ2DDL3k3twJTb0JjyfEcSp1QGMiTOkdhEc9kxpRpoW6q7p+
XypFdBY7HkW5KHd8bsRiac2yfoEqNUrZDwSQS/Jlt3WoMoaeBzITX0+//qGcOCnV
9IaGXnkeSQIDAQABo4GVMIGSMAkGA1UdEwQCMAAwLAYJYIZIAYb4QgENBB8WHU9w
ZW5TU0wgR2VuZXJhdGVkIENlcnRpZmljYXRlMB0GA1UdDgQWBBSj3UJWnBs2PvJA
RCtcJVTuOiRvtTA4BgNVHSMEMTAvoSKkIDAeMQswCQYDVQQGEwJLUjEPMA0GA1UE
AwwGZ2lsZ2lsggkAvP7v6Uq8Y/AwDQYJKoZIhvcNAQELBQADgYEAKYYP/VZDmJ4p
p2oxXp8L6bsbFb3mnSq9Yy9U8l7rWZ02zaHNLq9idKJH0vVXs3/b03mSMTj19IHz
h6clZmTKVUp8cdYWVxX6im1xZyfDDMAdZv/ZxgIB1CVBLeWPcrywwhWnJJ9TkWit
7BevObNRtiYJI2NIOuuPwtelzlU31/E=
-----END CERTIFICATE-----
