-----BEGIN RSA PRIVATE KEY-----
MIICXAIBAAKBgQCQ80PFM+xTyS2KvvbPwAZGZXiqh2tENOAAsiZAtqObDak4y7tG
hUI9ehVj/gBw0v3IYCQMgMFYUlfokaepzGQx7Zn8kj4SwNq6pcZ1tSPkQBVsFX67
Ji2TlegVXploKeSOS0va0qpPVVZWEbqcuYrwbu71uC3l3JjbYcXZXlbjbQIDAQAB
AoGAbmoAG737ra83k9L3qzU5EnLFQhE5spEceSs7XFxDsB7t4qe+lm94D+BpXuvj
Zg4y52nky+lgXmkLMcuSDhP11bUQZf6QiwpcdfACbAj27UrfdkI84NwmEOXmCnFd
TfK3awYTsBuS+TEyDHUmYktY8SQJFk8Ug1QH0SBi4j0t+YECQQDBPhvCgscAMsCZ
ZKP0eeqvfkchlbcN50fu2i22n3qwc/mF5cj4xnBiP2hQVsLAWBpRoF6gckr+SFt6
Dw7ftv5dAkEAwAY0UjSoPI0awJlDV0dU0t79+KSFU02qCeg2XR55KTXYqxvjG6qj
dCJqz5m9RK0oPVCWnr0UaNN7utqvDJuIUQJBAKQqm3K3n0/vzeeCtDbxjArjAJLr
mcPaBCZKfCN1gMl+/TBfckjGbJtKutflnTXCozlNQJaWAlfcKLqdKEmuMJECQEGo
nXFScggqU3Bxt3X7fQSRnRPM5Y3Da5Xxoc0bY2B0+f4gDfri0Psf3ZfYwL/f2XeF
u8rRak4hqhgNOHe+ItECQAXzqRIzNciS7/v5xZ+nxLTGkq2+Z1yxtJ8iqVVZm2ff
K8JWQMOtqeSjAmxG70DH1Kpz2e/FO1SJFzZoWciOdxw=
-----END RSA PRIVATE KEY-----
Certificate:
    Data:
        Version: 3 (0x2)
        Serial Number: 1 (0x1)
    Signature Algorithm: sha256WithRSAEncryption
        Issuer: C=KR, CN=gilgil
        Validity
            Not Before: Mar  1 00:00:00 2014 GMT
            Not After : Feb 27 00:00:00 2024 GMT
        Subject: C=KR, CN=lithium.daum.net
        Subject Public Key Info:
            Public Key Algorithm: rsaEncryption
                Public-Key: (1024 bit)
                Modulus:
                    00:90:f3:43:c5:33:ec:53:c9:2d:8a:be:f6:cf:c0:
                    06:46:65:78:aa:87:6b:44:34:e0:00:b2:26:40:b6:
                    a3:9b:0d:a9:38:cb:bb:46:85:42:3d:7a:15:63:fe:
                    00:70:d2:fd:c8:60:24:0c:80:c1:58:52:57:e8:91:
                    a7:a9:cc:64:31:ed:99:fc:92:3e:12:c0:da:ba:a5:
                    c6:75:b5:23:e4:40:15:6c:15:7e:bb:26:2d:93:95:
                    e8:15:5e:99:68:29:e4:8e:4b:4b:da:d2:aa:4f:55:
                    56:56:11:ba:9c:b9:8a:f0:6e:ee:f5:b8:2d:e5:dc:
                    98:db:61:c5:d9:5e:56:e3:6d
                Exponent: 65537 (0x10001)
        X509v3 extensions:
            X509v3 Basic Constraints: 
                CA:FALSE
            Netscape Comment: 
                OpenSSL Generated Certificate
            X509v3 Subject Key Identifier: 
                77:3A:E6:22:91:EB:E1:07:4A:F0:8D:CC:DD:46:F7:71:D8:8D:E5:B5
            X509v3 Authority Key Identifier: 
                DirName:/C=KR/CN=gilgil
                serial:BC:FE:EF:E9:4A:BC:63:F0

    Signature Algorithm: sha256WithRSAEncryption
         73:68:18:c3:d4:9b:32:06:64:e0:19:08:67:e1:17:be:64:dd:
         88:a5:04:44:0b:d3:15:f6:8a:9c:18:26:9f:aa:00:8b:30:8e:
         3e:e4:c1:b2:2c:47:c4:c6:34:c7:40:e2:12:65:bd:ae:0b:47:
         10:4b:d7:94:ca:a3:e6:b4:6b:06:1f:5a:02:41:5b:41:cc:4f:
         82:0a:f5:a9:84:f1:58:8e:49:7a:76:34:8d:02:16:7a:1f:6b:
         43:88:57:3a:5f:aa:18:73:1e:5b:db:90:fa:c0:df:cd:c1:08:
         88:14:be:31:f3:cd:c0:29:1b:ab:3e:5b:2f:7f:48:78:9a:de:
         02:04
-----BEGIN CERTIFICATE-----
MIICVjCCAb+gAwIBAgIBATANBgkqhkiG9w0BAQsFADAeMQswCQYDVQQGEwJLUjEP
MA0GA1UEAwwGZ2lsZ2lsMCIYDzIwMTQwMzAxMDAwMDAwWhgPMjAyNDAyMjcwMDAw
MDBaMCgxCzAJBgNVBAYTAktSMRkwFwYDVQQDDBBsaXRoaXVtLmRhdW0ubmV0MIGf
MA0GCSqGSIb3DQEBAQUAA4GNADCBiQKBgQCQ80PFM+xTyS2KvvbPwAZGZXiqh2tE
NOAAsiZAtqObDak4y7tGhUI9ehVj/gBw0v3IYCQMgMFYUlfokaepzGQx7Zn8kj4S
wNq6pcZ1tSPkQBVsFX67Ji2TlegVXploKeSOS0va0qpPVVZWEbqcuYrwbu71uC3l
3JjbYcXZXlbjbQIDAQABo4GVMIGSMAkGA1UdEwQCMAAwLAYJYIZIAYb4QgENBB8W
HU9wZW5TU0wgR2VuZXJhdGVkIENlcnRpZmljYXRlMB0GA1UdDgQWBBR3OuYikevh
B0rwjczdRvdx2I3ltTA4BgNVHSMEMTAvoSKkIDAeMQswCQYDVQQGEwJLUjEPMA0G
A1UEAwwGZ2lsZ2lsggkAvP7v6Uq8Y/AwDQYJKoZIhvcNAQELBQADgYEAc2gYw9Sb
MgZk4BkIZ+EXvmTdiKUERAvTFfaKnBgmn6oAizCOPuTBsixHxMY0x0DiEmW9rgtH
EEvXlMqj5rRrBh9aAkFbQcxPggr1qYTxWI5JenY0jQIWeh9rQ4hXOl+qGHMeW9uQ
+sDfzcEIiBS+MfPNwCkbqz5bL39IeJreAgQ=
-----END CERTIFICATE-----
