-----BEGIN RSA PRIVATE KEY-----
MIICXQIBAAKBgQDEGI5n7e+un5Sa9aFn/1GHwdcyqviLKaVax0J31zyf6vNGSxHj
h6Q/iGuDF+p0SHY1JvaO0wSn1eWVF0WUwTkWasZoSqGbs9XkxrSwVu767Z9hdBts
gN5itwzWFrYziciw2j4r+9iHfET/MqkvBCXCTfKM7Z6rPI61RmzBJ3m1JwIDAQAB
AoGAEYHLvPWeL23p24fQeDNwOPmSV+CxveLi817UzVQ3AmP8gisTlse2X0Gzr4mE
EguiGg63dnracI2FKLFiMeyqRvDPChDPoYFPp6/8ZquGSKoVT0TDx4Zf5XkLek/Y
wvsNaO12dsPI9r/+7FvfYkbFKxUGzssL0+F/riOGMsber7ECQQD7Hg+qSTvLQ46b
c2A10fTvDcmWNDgPoU7qxAgKRXcRPQBPlPCEerQ10dvfA+ji7BIoFOHrIJYkydUu
8bv76uyfAkEAx+igCcKMwg/SIzNe69Lw46lhLAtVE1Nl7OH4H/6t3Y4CaNKc5M4d
yeYP6MSNDAeCdgbNzMe44/wFL3x+oEVieQJBAM4lF2cLR3LNurwSMuD7wr6b6ujL
ZVovacF/u7ny3JPiJ+cstWWL9XRZGs4xP3VJpn4Q5oVG8vqwVbl76H4dlLECQHsT
yLxZkEnGbc0ISq+MTo0L8myoiXd9iCpAsYAZT7gxP2CEEt533DU6tJ7NrD00vmim
JbynVjjfJ94lmtxX+5kCQQCuE3FcBavmIYOWmu/KdwmWblf3SjaJhGZ4uUDRaR2f
4hYrS0s3gMdU9yccjyLPct/MK+Hsq1vuHWKLjSNWmH4n
-----END RSA PRIVATE KEY-----
Certificate:
    Data:
        Version: 3 (0x2)
        Serial Number: 2 (0x2)
    Signature Algorithm: sha256WithRSAEncryption
        Issuer: C=KR, CN=gilgil
        Validity
            Not Before: Mar  1 00:00:00 2014 GMT
            Not After : Feb 27 00:00:00 2024 GMT
        Subject: C=KR, CN=login.live.com
        Subject Public Key Info:
            Public Key Algorithm: rsaEncryption
                Public-Key: (1024 bit)
                Modulus:
                    00:c4:18:8e:67:ed:ef:ae:9f:94:9a:f5:a1:67:ff:
                    51:87:c1:d7:32:aa:f8:8b:29:a5:5a:c7:42:77:d7:
                    3c:9f:ea:f3:46:4b:11:e3:87:a4:3f:88:6b:83:17:
                    ea:74:48:76:35:26:f6:8e:d3:04:a7:d5:e5:95:17:
                    45:94:c1:39:16:6a:c6:68:4a:a1:9b:b3:d5:e4:c6:
                    b4:b0:56:ee:fa:ed:9f:61:74:1b:6c:80:de:62:b7:
                    0c:d6:16:b6:33:89:c8:b0:da:3e:2b:fb:d8:87:7c:
                    44:ff:32:a9:2f:04:25:c2:4d:f2:8c:ed:9e:ab:3c:
                    8e:b5:46:6c:c1:27:79:b5:27
                Exponent: 65537 (0x10001)
        X509v3 extensions:
            X509v3 Basic Constraints: 
                CA:FALSE
            Netscape Comment: 
                OpenSSL Generated Certificate
            X509v3 Subject Key Identifier: 
                EC:AE:CA:37:C3:C0:9E:1A:9E:C2:49:11:0B:0D:29:CA:10:E2:B8:23
            X509v3 Authority Key Identifier: 
                DirName:/C=KR/CN=gilgil
                serial:BC:FE:EF:E9:4A:BC:63:F0

    Signature Algorithm: sha256WithRSAEncryption
         ac:c4:67:06:e5:49:92:aa:c0:36:d0:6f:3e:78:43:f9:53:4e:
         9e:78:0a:46:96:a3:cb:43:af:1f:2b:ff:fd:bb:e4:c7:60:63:
         41:3f:7f:cc:2a:1c:da:56:88:bb:76:a1:f0:fd:85:53:ff:f4:
         75:5f:21:c4:0f:72:8e:31:f1:b0:81:01:8f:15:78:fc:38:52:
         3e:85:c8:25:00:c6:63:4b:d2:1e:43:a5:dc:58:bb:80:46:8d:
         bc:1f:59:19:bd:8c:43:d5:7e:09:01:c7:e2:e8:0a:a6:17:f5:
         97:ea:d5:28:fb:0f:b9:0f:ce:4d:f3:e0:6a:99:77:ed:91:d7:
         8d:f7
-----BEGIN CERTIFICATE-----
MIICVDCCAb2gAwIBAgIBAjANBgkqhkiG9w0BAQsFADAeMQswCQYDVQQGEwJLUjEP
MA0GA1UEAwwGZ2lsZ2lsMCIYDzIwMTQwMzAxMDAwMDAwWhgPMjAyNDAyMjcwMDAw
MDBaMCYxCzAJBgNVBAYTAktSMRcwFQYDVQQDDA5sb2dpbi5saXZlLmNvbTCBnzAN
BgkqhkiG9w0BAQEFAAOBjQAwgYkCgYEAxBiOZ+3vrp+UmvWhZ/9Rh8HXMqr4iyml
WsdCd9c8n+rzRksR44ekP4hrgxfqdEh2NSb2jtMEp9XllRdFlME5FmrGaEqhm7PV
5Ma0sFbu+u2fYXQbbIDeYrcM1ha2M4nIsNo+K/vYh3xE/zKpLwQlwk3yjO2eqzyO
tUZswSd5tScCAwEAAaOBlTCBkjAJBgNVHRMEAjAAMCwGCWCGSAGG+EIBDQQfFh1P
cGVuU1NMIEdlbmVyYXRlZCBDZXJ0aWZpY2F0ZTAdBgNVHQ4EFgQU7K7KN8PAnhqe
wkkRCw0pyhDiuCMwOAYDVR0jBDEwL6EipCAwHjELMAkGA1UEBhMCS1IxDzANBgNV
BAMMBmdpbGdpbIIJALz+7+lKvGPwMA0GCSqGSIb3DQEBCwUAA4GBAKzEZwblSZKq
wDbQbz54Q/lTTp54CkaWo8tDrx8r//275MdgY0E/f8wqHNpWiLt2ofD9hVP/9HVf
IcQPco4x8bCBAY8VePw4Uj6FyCUAxmNL0h5DpdxYu4BGjbwfWRm9jEPVfgkBx+Lo
CqYX9Zfq1Sj7D7kPzk3z4GqZd+2R1433
-----END CERTIFICATE-----
