-----BEGIN RSA PRIVATE KEY-----
MIICXgIBAAKBgQD48xbZ+wnfclM60cepBmmoi3HwGZw36jI1mYdFPyECNq/MijIK
vPj3aXS4N3KkNF8+zqQTHUtDcQwMb79pTGXH2Y3L7nvCUwMO2LXTCkwUBLKFbvqn
nylqzoyLCBWC+ItMpDeq4cdxT3z1nAYI93qQpmzymlsOURVOgnlzK+t5FQIDAQAB
AoGBAIwETQn0w6zFJEKk0mMilDKTm1WrUc2xDuROoWI1C1+vWlj0MQkRGAYvbdJe
fUAVpKwylN2bUEVyQ5CLGWEj8unEWrzptkF205ACS20FROHzacQXOsRtfSKDm52U
yCN8fuuAKpaMEfwdjm2yQv+sOG5RZtlKsYwjzj1q1tF62ZHRAkEA/l/cGQlQr2L+
noC1v/oBJp2ZpQvGa+LrwrS7iloTlfEbZubyoHc7CfA2jKkUeBihCQ585aRPdcjw
0Q3Cm16RIwJBAPqKWtCCAcImMnfbYyBbvzCQmsXpr+M6YkKcqC22J6aXzZ+6aCUH
XpW1HfRT23j26CEDmQ9l/q//0kgTAt4X3GcCQAe6U85y6P+bC083a84cQ0KwEQXh
mLKYXz84DGaEnAm3HHUA2Sgk1ydTI+UcEeIgJWxIA2Vam4thgmdnep0Lv28CQQDS
dCPC4GIvvzxHmB8VUFwypFWOiDU6L5HYmJVhCJEYDI4qbUAMUrtuEBzgXwyN+QGW
sdoBqFCfcMonxuhyvSJjAkEAzDhFFfiZNWrjATNPl/IW/V+MTutB78aApidONwLR
OGX2dFj4OAGssjAou5QArXCLAv8gA4mBM6QCrTsz1B3PcQ==
-----END RSA PRIVATE KEY-----
Certificate:
    Data:
        Version: 3 (0x2)
        Serial Number: 6 (0x6)
    Signature Algorithm: sha256WithRSAEncryption
        Issuer: C=KR, CN=gilgil
        Validity
            Not Before: Mar  1 00:00:00 2014 GMT
            Not After : Feb 27 00:00:00 2024 GMT
        Subject: C=KR, CN=mail.naver.com
        Subject Public Key Info:
            Public Key Algorithm: rsaEncryption
                Public-Key: (1024 bit)
                Modulus:
                    00:f8:f3:16:d9:fb:09:df:72:53:3a:d1:c7:a9:06:
                    69:a8:8b:71:f0:19:9c:37:ea:32:35:99:87:45:3f:
                    21:02:36:af:cc:8a:32:0a:bc:f8:f7:69:74:b8:37:
                    72:a4:34:5f:3e:ce:a4:13:1d:4b:43:71:0c:0c:6f:
                    bf:69:4c:65:c7:d9:8d:cb:ee:7b:c2:53:03:0e:d8:
                    b5:d3:0a:4c:14:04:b2:85:6e:fa:a7:9f:29:6a:ce:
                    8c:8b:08:15:82:f8:8b:4c:a4:37:aa:e1:c7:71:4f:
                    7c:f5:9c:06:08:f7:7a:90:a6:6c:f2:9a:5b:0e:51:
                    15:4e:82:79:73:2b:eb:79:15
                Exponent: 65537 (0x10001)
        X509v3 extensions:
            X509v3 Basic Constraints: 
                CA:FALSE
            Netscape Comment: 
                OpenSSL Generated Certificate
            X509v3 Subject Key Identifier: 
                8F:1E:F3:DD:B4:18:41:C0:A8:2D:2C:9B:ED:37:87:38:B4:3D:53:3A
            X509v3 Authority Key Identifier: 
                DirName:/C=KR/CN=gilgil
                serial:BC:FE:EF:E9:4A:BC:63:F0

    Signature Algorithm: sha256WithRSAEncryption
         a9:d6:ae:1f:3f:89:56:7e:d7:85:ed:e8:ea:34:06:0c:95:e3:
         36:dc:66:98:72:db:0c:6b:4d:49:8b:3e:1d:b9:54:07:9a:e2:
         1e:e4:43:49:b3:61:58:22:be:18:cd:74:04:0c:ef:39:17:12:
         50:4f:bf:79:3e:1c:b5:dd:e5:78:4d:6b:45:b8:b3:e9:a3:cf:
         5a:81:68:51:e3:2d:a5:ed:46:db:4c:75:94:ed:e7:44:88:18:
         3e:e0:88:e6:e7:6a:b0:aa:5a:ee:f5:50:5c:7d:14:66:a8:eb:
         c0:d0:b1:49:5f:47:72:ae:9a:7d:80:d5:34:00:ff:4e:57:fc:
         12:16
-----BEGIN CERTIFICATE-----
MIICVDCCAb2gAwIBAgIBBjANBgkqhkiG9w0BAQsFADAeMQswCQYDVQQGEwJLUjEP
MA0GA1UEAwwGZ2lsZ2lsMCIYDzIwMTQwMzAxMDAwMDAwWhgPMjAyNDAyMjcwMDAw
MDBaMCYxCzAJBgNVBAYTAktSMRcwFQYDVQQDDA5tYWlsLm5hdmVyLmNvbTCBnzAN
BgkqhkiG9w0BAQEFAAOBjQAwgYkCgYEA+PMW2fsJ33JTOtHHqQZpqItx8BmcN+oy
NZmHRT8hAjavzIoyCrz492l0uDdypDRfPs6kEx1LQ3EMDG+/aUxlx9mNy+57wlMD
Dti10wpMFASyhW76p58pas6MiwgVgviLTKQ3quHHcU989ZwGCPd6kKZs8ppbDlEV
ToJ5cyvreRUCAwEAAaOBlTCBkjAJBgNVHRMEAjAAMCwGCWCGSAGG+EIBDQQfFh1P
cGVuU1NMIEdlbmVyYXRlZCBDZXJ0aWZpY2F0ZTAdBgNVHQ4EFgQUjx7z3bQYQcCo
LSyb7TeHOLQ9UzowOAYDVR0jBDEwL6EipCAwHjELMAkGA1UEBhMCS1IxDzANBgNV
BAMMBmdpbGdpbIIJALz+7+lKvGPwMA0GCSqGSIb3DQEBCwUAA4GBAKnWrh8/iVZ+
14Xt6Oo0BgyV4zbcZphy2wxrTUmLPh25VAea4h7kQ0mzYVgivhjNdAQM7zkXElBP
v3k+HLXd5XhNa0W4s+mjz1qBaFHjLaXtRttMdZTt50SIGD7giObnarCqWu71UFx9
FGao68DQsUlfR3Kumn2A1TQA/05X/BIW
-----END CERTIFICATE-----
