-----BEGIN RSA PRIVATE KEY-----
MIICXAIBAAKBgQDLf01ziy+7Z/PMKM54+Vc9mSdTZ4rV7pwJPcSns94D2/Z2wp/y
2/X4ph5rVy+j2vpT/2u39ZmjqpkZBTcidlk8HZlPucZDva9eCyY4qMmAK6xfzC1w
RvqKxriY1trcBPf4b+GPkgtooFHbfKUsGzRiuuDriGFYpJQETTMLJoCPkQIDAQAB
AoGBAKPVQuriRTSRNZPJyqlUvSsHkcSxWPJxn0hFZX1K71SWE/B7MsEY3Agq3dS3
pdA6rU1RF01MuzwsTgP50fC57Y5r5NECYjHjJv7/RiRLOuo7P0dNnBBmMuHiHAmA
oijagP+H2r6mXQXVW1T2ZOYRYy1mJrgxbnjhTCU6hltsudIBAkEA67LmepKQqmg0
yolfjVAEm2Wll4+atT0YqHEe5gWELraGA11UCwbWqBGMQ+J4tM2mIAhFxdbGCZDt
lYMpvksgoQJBAN0GXbkB7XTTYAJrqWlXZ9hAY1y4bqeZ63z7yLF75DLg/InSEaGA
Q2CG8RABYUpIkFvjPMxh7okJJC7gJvLf2PECQBhN/GJLVsubr0XrYIUL6U2075xv
XH6v7CkCcTM7AmRmwe764r24WM4/8PzXD6dlRWosMDW0bftyjG1MdzN+P8ECQHhM
PLqzd+C8I2dt3bk+H4EuGmae42tJdUiDagpf2iZvGkSRF5OFUia5i38goSljMV8x
4SeEreXcGduBmPFcMKECQAF3LtO96b1/X3b+kXBOmG4+kYyEq+vKQ9/JJrlN9Q6j
NvK1JTp0NXUvaaFDgQZuntWZArRZyjiPnNXtIf6d8c4=
-----END RSA PRIVATE KEY-----
Certificate:
    Data:
        Version: 3 (0x2)
        Serial Number: 26 (0x1a)
    Signature Algorithm: sha256WithRSAEncryption
        Issuer: C=KR, CN=gilgil
        Validity
            Not Before: Mar  1 00:00:00 2014 GMT
            Not After : Feb 27 00:00:00 2024 GMT
        Subject: C=KR, CN=match.adsrvr.org
        Subject Public Key Info:
            Public Key Algorithm: rsaEncryption
                Public-Key: (1024 bit)
                Modulus:
                    00:cb:7f:4d:73:8b:2f:bb:67:f3:cc:28:ce:78:f9:
                    57:3d:99:27:53:67:8a:d5:ee:9c:09:3d:c4:a7:b3:
                    de:03:db:f6:76:c2:9f:f2:db:f5:f8:a6:1e:6b:57:
                    2f:a3:da:fa:53:ff:6b:b7:f5:99:a3:aa:99:19:05:
                    37:22:76:59:3c:1d:99:4f:b9:c6:43:bd:af:5e:0b:
                    26:38:a8:c9:80:2b:ac:5f:cc:2d:70:46:fa:8a:c6:
                    b8:98:d6:da:dc:04:f7:f8:6f:e1:8f:92:0b:68:a0:
                    51:db:7c:a5:2c:1b:34:62:ba:e0:eb:88:61:58:a4:
                    94:04:4d:33:0b:26:80:8f:91
                Exponent: 65537 (0x10001)
        X509v3 extensions:
            X509v3 Basic Constraints: 
                CA:FALSE
            Netscape Comment: 
                OpenSSL Generated Certificate
            X509v3 Subject Key Identifier: 
                21:93:77:1A:B1:90:89:18:00:CE:BD:E5:F6:96:1F:F0:29:EB:F9:E7
            X509v3 Authority Key Identifier: 
                DirName:/C=KR/CN=gilgil
                serial:BC:FE:EF:E9:4A:BC:63:F0

    Signature Algorithm: sha256WithRSAEncryption
         0c:88:23:96:64:41:09:85:2a:48:ec:c1:88:c7:b5:1d:4b:9c:
         00:5b:58:94:92:f9:2a:25:5d:2c:ef:94:f9:6a:f1:14:c4:69:
         1f:7f:e7:0f:33:42:aa:fe:38:60:d8:95:cd:4b:d0:9e:ee:dc:
         08:e9:71:a2:8b:39:a1:44:1c:4d:cb:c6:8d:d6:7f:98:16:43:
         a2:99:53:d5:cf:7f:4d:0f:36:12:cc:5b:60:88:f7:6f:e1:10:
         a8:6d:be:2f:f7:c9:5f:31:0d:2b:94:3b:d9:72:ab:b9:7f:94:
         d7:fe:90:b8:71:ca:4b:d7:6b:06:3a:96:51:9f:86:d4:fa:72:
         71:1f
-----BEGIN CERTIFICATE-----
MIICVjCCAb+gAwIBAgIBGjANBgkqhkiG9w0BAQsFADAeMQswCQYDVQQGEwJLUjEP
MA0GA1UEAwwGZ2lsZ2lsMCIYDzIwMTQwMzAxMDAwMDAwWhgPMjAyNDAyMjcwMDAw
MDBaMCgxCzAJBgNVBAYTAktSMRkwFwYDVQQDDBBtYXRjaC5hZHNydnIub3JnMIGf
MA0GCSqGSIb3DQEBAQUAA4GNADCBiQKBgQDLf01ziy+7Z/PMKM54+Vc9mSdTZ4rV
7pwJPcSns94D2/Z2wp/y2/X4ph5rVy+j2vpT/2u39ZmjqpkZBTcidlk8HZlPucZD
va9eCyY4qMmAK6xfzC1wRvqKxriY1trcBPf4b+GPkgtooFHbfKUsGzRiuuDriGFY
pJQETTMLJoCPkQIDAQABo4GVMIGSMAkGA1UdEwQCMAAwLAYJYIZIAYb4QgENBB8W
HU9wZW5TU0wgR2VuZXJhdGVkIENlcnRpZmljYXRlMB0GA1UdDgQWBBQhk3casZCJ
GADOveX2lh/wKev55zA4BgNVHSMEMTAvoSKkIDAeMQswCQYDVQQGEwJLUjEPMA0G
A1UEAwwGZ2lsZ2lsggkAvP7v6Uq8Y/AwDQYJKoZIhvcNAQELBQADgYEADIgjlmRB
CYUqSOzBiMe1HUucAFtYlJL5KiVdLO+U+WrxFMRpH3/nDzNCqv44YNiVzUvQnu7c
COlxoos5oUQcTcvGjdZ/mBZDoplT1c9/TQ82EsxbYIj3b+EQqG2+L/fJXzENK5Q7
2XKruX+U1/6QuHHKS9drBjqWUZ+G1PpycR8=
-----END CERTIFICATE-----
