-----BEGIN RSA PRIVATE KEY-----
MIICXAIBAAKBgQCuj6dr6SdxnyNsAzljSoStbrg1iLcMyCA7P0BoIoiOs4vJbrc7
5CP6tO2/kEweHId0rGzwJUHfYAN2HdcOH9mqhYAViHvDTRWLZ5FnGak8Q3OX99ng
OualwkGlgJK7pm3+4GZUxqhvKQUX41bCUSdjZSQHTz0mB/kRlSZ744CGEwIDAQAB
AoGAHM/HIW+FPCK5FP3fPf0xsvKAYw2isPBjKYRCHC3+/haybtfgVHlOWvX7+89U
UPACh4ZiIKz1l2ngiGFaepFVOqMGE7JE5j4TMVVIaihFVI6OPANCzGmG4qrut0oZ
cNNR7A9cJBNgOdjYuicWRBD1Qe7cj8Ae12tl7EgU+YsAUSkCQQDiV2EloBE7Kupu
IQSRfih8SC/W/zAEjxus9DPaTie4cvbi8UxB3RjRTUmQf9bH772Nd7ZEl1l3Tbla
qB06DsVtAkEAxW9O636CN48+M/jb4JMYa1lCRiIlI/hA7zzfRt/zK0hdOt3ppTvd
sHottCtz98F1y/hdte5xOwk2nzxTWZLJfwJADzlBV36Eqi4gxneCDyclIfbZAOT5
HdViTye9tRk8orNY17rTHjr4yFsib42prJj7buB2afakFdosdWSJUrZboQJAG0UQ
hX5nxfzG/q600AQBL3KYsM8uihVUArdJr6RnFedc2TClgOkP6bw2a9hEoEfcWVvo
taRFh33ySXQvnwOjSQJBANvBG1rg57efGkT+fc9lSjQyW6xoCVVCCnWraJnEl5rT
XnZGaCL5mFb4g0Rnc/trPIZnfd658TDKW1RfY3DwTCM=
-----END RSA PRIVATE KEY-----
Certificate:
    Data:
        Version: 3 (0x2)
        Serial Number: 2 (0x2)
    Signature Algorithm: sha256WithRSAEncryption
        Issuer: C=KR, CN=gilgil
        Validity
            Not Before: Mar  1 00:00:00 2014 GMT
            Not After : Feb 27 00:00:00 2024 GMT
        Subject: C=KR, CN=mem.gfx.ms
        Subject Public Key Info:
            Public Key Algorithm: rsaEncryption
                Public-Key: (1024 bit)
                Modulus:
                    00:ae:8f:a7:6b:e9:27:71:9f:23:6c:03:39:63:4a:
                    84:ad:6e:b8:35:88:b7:0c:c8:20:3b:3f:40:68:22:
                    88:8e:b3:8b:c9:6e:b7:3b:e4:23:fa:b4:ed:bf:90:
                    4c:1e:1c:87:74:ac:6c:f0:25:41:df:60:03:76:1d:
                    d7:0e:1f:d9:aa:85:80:15:88:7b:c3:4d:15:8b:67:
                    91:67:19:a9:3c:43:73:97:f7:d9:e0:3a:e6:a5:c2:
                    41:a5:80:92:bb:a6:6d:fe:e0:66:54:c6:a8:6f:29:
                    05:17:e3:56:c2:51:27:63:65:24:07:4f:3d:26:07:
                    f9:11:95:26:7b:e3:80:86:13
                Exponent: 65537 (0x10001)
        X509v3 extensions:
            X509v3 Basic Constraints: 
                CA:FALSE
            Netscape Comment: 
                OpenSSL Generated Certificate
            X509v3 Subject Key Identifier: 
                FA:2F:81:AC:24:06:55:15:34:45:99:45:FC:E0:CE:D1:E1:99:4D:59
            X509v3 Authority Key Identifier: 
                DirName:/C=KR/CN=gilgil
                serial:BC:FE:EF:E9:4A:BC:63:F0

    Signature Algorithm: sha256WithRSAEncryption
         c5:8f:f7:4f:55:82:3d:ca:52:64:44:9a:ab:93:bf:ea:16:2a:
         12:07:6a:21:ad:90:0f:f7:ef:d3:ee:96:6d:ea:e7:00:d6:5f:
         13:3f:32:26:37:77:25:0e:c8:5b:9a:3c:2f:12:15:91:a2:99:
         ca:a4:fb:3f:80:2c:6d:e3:3e:df:9b:a5:0b:22:89:f1:9b:80:
         84:ec:fd:57:d4:17:0e:57:05:d0:7e:fe:d1:4f:f9:61:03:6f:
         0d:5c:21:cf:3b:53:06:a8:03:c6:2b:ab:de:1f:a7:6f:12:29:
         17:29:3f:15:81:ed:da:e9:4f:b5:58:b3:a8:9d:1c:1d:2f:dc:
         88:24
-----BEGIN CERTIFICATE-----
MIICUDCCAbmgAwIBAgIBAjANBgkqhkiG9w0BAQsFADAeMQswCQYDVQQGEwJLUjEP
MA0GA1UEAwwGZ2lsZ2lsMCIYDzIwMTQwMzAxMDAwMDAwWhgPMjAyNDAyMjcwMDAw
MDBaMCIxCzAJBgNVBAYTAktSMRMwEQYDVQQDDAptZW0uZ2Z4Lm1zMIGfMA0GCSqG
SIb3DQEBAQUAA4GNADCBiQKBgQCuj6dr6SdxnyNsAzljSoStbrg1iLcMyCA7P0Bo
IoiOs4vJbrc75CP6tO2/kEweHId0rGzwJUHfYAN2HdcOH9mqhYAViHvDTRWLZ5Fn
Gak8Q3OX99ngOualwkGlgJK7pm3+4GZUxqhvKQUX41bCUSdjZSQHTz0mB/kRlSZ7
44CGEwIDAQABo4GVMIGSMAkGA1UdEwQCMAAwLAYJYIZIAYb4QgENBB8WHU9wZW5T
U0wgR2VuZXJhdGVkIENlcnRpZmljYXRlMB0GA1UdDgQWBBT6L4GsJAZVFTRFmUX8
4M7R4ZlNWTA4BgNVHSMEMTAvoSKkIDAeMQswCQYDVQQGEwJLUjEPMA0GA1UEAwwG
Z2lsZ2lsggkAvP7v6Uq8Y/AwDQYJKoZIhvcNAQELBQADgYEAxY/3T1WCPcpSZESa
q5O/6hYqEgdqIa2QD/fv0+6WbernANZfEz8yJjd3JQ7IW5o8LxIVkaKZyqT7P4As
beM+35ulCyKJ8ZuAhOz9V9QXDlcF0H7+0U/5YQNvDVwhzztTBqgDxiur3h+nbxIp
Fyk/FYHt2ulPtVizqJ0cHS/ciCQ=
-----END CERTIFICATE-----
