-----BEGIN RSA PRIVATE KEY-----
MIICXAIBAAKBgQDibUKg5R77EXIOdWo1DY86IhT87maXUMryKpoizF0cUnxGIs4r
pScLSCh4QBbjmqF+qZYMtqXMfXHfDCpGeFZ61e9pbS27qZBSzOuQCV98w+/RrB8z
EaZu5CpcJJ24C6ksdjZiRd1DvSf2j9Vi6Qr3gd45Uz2vxb0x/FlElBfvSQIDAQAB
AoGAcc8zV0XzDYVWS/guex4mqLSq0ftOa647Y/+P2//WqT64olQqRvvLJTuOw+qK
1rpJhC3fcuJ3cdJ34wHtWeBwrnkJ+kM9ecX6/2mXWS2g2SGoLKNsvQgM7RPLhIbT
JrD3ff/eWsvxNaycDbYNp0DmEKYKKS23HSArwwWDt5Dyt5ECQQD7ZfdbSqeH2/C+
W8ddDIUPhI5vvjN0wvJDQADXPF4pdqFdPLebDhSYQxKA6YrUOGusLFd4x+0Tw/kb
gWV7BE0lAkEA5pJHhvNiEXTNNJDloTvnW4DTgDKVbtHWOl/B++oaBkVrpsFVeVwB
lNYjWygUDqg96su+doo5Wwb17MhCCgVqVQJATJfJYBADsLnKxER0Hh5VX9/0AYmC
Zd2LMAANAYaL7bgN+7km+1+z2Jv+xDXjLTsvWtp7n/nRekcn20B2KZ+q3QJAaAPj
iqivPArCLA2V2ffJNklWoIWxTg4Ro8HhJAEG/n9AwjiDk70C5Z740j2xVq9lR0/k
u1s95qesN8ZbrGOnBQJBAMAgLA05jjubhtqB622hlp4TM4PF4ScqqcRhedDDu7Ug
Yss76yuUmqGi+VD2UI8elR/ucBYZbCTgCtF2DJpJ3R4=
-----END RSA PRIVATE KEY-----
Certificate:
    Data:
        Version: 3 (0x2)
        Serial Number: 1 (0x1)
    Signature Algorithm: sha256WithRSAEncryption
        Issuer: C=KR, CN=gilgil
        Validity
            Not Before: Mar  1 00:00:00 2014 GMT
            Not After : Feb 27 00:00:00 2024 GMT
        Subject: C=KR, CN=microsoft.com
        Subject Public Key Info:
            Public Key Algorithm: rsaEncryption
                Public-Key: (1024 bit)
                Modulus:
                    00:e2:6d:42:a0:e5:1e:fb:11:72:0e:75:6a:35:0d:
                    8f:3a:22:14:fc:ee:66:97:50:ca:f2:2a:9a:22:cc:
                    5d:1c:52:7c:46:22:ce:2b:a5:27:0b:48:28:78:40:
                    16:e3:9a:a1:7e:a9:96:0c:b6:a5:cc:7d:71:df:0c:
                    2a:46:78:56:7a:d5:ef:69:6d:2d:bb:a9:90:52:cc:
                    eb:90:09:5f:7c:c3:ef:d1:ac:1f:33:11:a6:6e:e4:
                    2a:5c:24:9d:b8:0b:a9:2c:76:36:62:45:dd:43:bd:
                    27:f6:8f:d5:62:e9:0a:f7:81:de:39:53:3d:af:c5:
                    bd:31:fc:59:44:94:17:ef:49
                Exponent: 65537 (0x10001)
        X509v3 extensions:
            X509v3 Basic Constraints: 
                CA:FALSE
            Netscape Comment: 
                OpenSSL Generated Certificate
            X509v3 Subject Key Identifier: 
                CB:5B:2E:B1:B4:83:41:59:CC:DE:54:7B:F5:8C:51:FD:8A:2C:AA:8F
            X509v3 Authority Key Identifier: 
                DirName:/C=KR/CN=gilgil
                serial:BC:FE:EF:E9:4A:BC:63:F0

    Signature Algorithm: sha256WithRSAEncryption
         0e:ff:01:1f:e3:f2:4e:78:02:47:ed:1d:79:1b:eb:b7:6d:ad:
         c2:c9:d1:ad:ee:5b:b7:26:7b:3b:55:17:94:db:15:9a:a3:6f:
         1b:29:0e:61:38:c7:c0:25:e7:0d:6e:0e:ce:bd:e3:6c:b0:2e:
         cb:7b:9b:ff:36:1c:14:4c:06:25:8c:f5:ab:8e:79:aa:2f:a7:
         b5:56:2f:a3:9e:0e:2e:49:d3:70:99:3b:8d:a2:bc:0d:56:21:
         0c:2d:33:64:aa:b3:3c:92:ba:02:42:46:c8:b9:03:38:78:9e:
         b8:ad:c2:73:be:ee:88:3b:99:a8:19:54:46:0b:03:0c:47:b6:
         79:06
-----BEGIN CERTIFICATE-----
MIICUzCCAbygAwIBAgIBATANBgkqhkiG9w0BAQsFADAeMQswCQYDVQQGEwJLUjEP
MA0GA1UEAwwGZ2lsZ2lsMCIYDzIwMTQwMzAxMDAwMDAwWhgPMjAyNDAyMjcwMDAw
MDBaMCUxCzAJBgNVBAYTAktSMRYwFAYDVQQDDA1taWNyb3NvZnQuY29tMIGfMA0G
CSqGSIb3DQEBAQUAA4GNADCBiQKBgQDibUKg5R77EXIOdWo1DY86IhT87maXUMry
KpoizF0cUnxGIs4rpScLSCh4QBbjmqF+qZYMtqXMfXHfDCpGeFZ61e9pbS27qZBS
zOuQCV98w+/RrB8zEaZu5CpcJJ24C6ksdjZiRd1DvSf2j9Vi6Qr3gd45Uz2vxb0x
/FlElBfvSQIDAQABo4GVMIGSMAkGA1UdEwQCMAAwLAYJYIZIAYb4QgENBB8WHU9w
ZW5TU0wgR2VuZXJhdGVkIENlcnRpZmljYXRlMB0GA1UdDgQWBBTLWy6xtINBWcze
VHv1jFH9iiyqjzA4BgNVHSMEMTAvoSKkIDAeMQswCQYDVQQGEwJLUjEPMA0GA1UE
AwwGZ2lsZ2lsggkAvP7v6Uq8Y/AwDQYJKoZIhvcNAQELBQADgYEADv8BH+PyTngC
R+0deRvrt22twsnRre5btyZ7O1UXlNsVmqNvGykOYTjHwCXnDW4Ozr3jbLAuy3ub
/zYcFEwGJYz1q455qi+ntVYvo54OLknTcJk7jaK8DVYhDC0zZKqzPJK6AkJGyLkD
OHieuK3Cc77uiDuZqBlURgsDDEe2eQY=
-----END CERTIFICATE-----
