-----BEGIN RSA PRIVATE KEY-----
MIICXQIBAAKBgQC7OeUABrtBSMbCvqgkouVuemh7xTpMDOu2viTHbzEDeThjIWCC
CedsdWvle/4seEm8g8GRZPvlglX/W4HFLO8yOTm9Daz/nkfLzy42Y1tANnH8kAd9
WemwcdQBQF+kNCDQiRw6HW9oE3Q29zB7jL3Hh5pVx2eWtXq19ahyPKP9YwIDAQAB
AoGAbwJyv0M+gATwpMN62s4jDxBRJyHX4QPANwgisoVBIHgdcNl3aWMJ7orowJZ2
LFPeFIJioRypJnnTF6dgGFL+N1tdy7OQAQHtOmqQPyGQ1eZjCAC0hhxgzO2L4G8C
1hau/9M0594AKhNns1p4Bcdfp3bFCzjBt9DQQojIbqQTCIECQQDjUdtuGwTwbsSJ
bRJbSvkdTzfkKb/cnZf2RzCMs02EOxjUdcrAgiwLQq9q280zUKQzQhHTmJjqLBrs
dUHii/6DAkEA0tkQdKhIYSXNwoPtHUpmwKNxuqIZdAdEkV1Qs9zLGhBW1UGhUjN5
6QHGJacmLW9OeooILGGBuUgTE8Yo52/PoQJAD6vG+tI2BvU761VvnIeQoOqjKcGP
DoB2x22k9S4vO9xvG8Z7EcZnjucr/Kvme5EloLr/S50LfalIueBjiGCqTQJBAJ7s
ygCET3oaOothUTqAuA5/o9ufDzxrtf0zrv7Db7tHkYvQmj4RWtSMZ8Q9xwL8INUw
cZSyMktrziVbeb1og8ECQQC9G7Hl0hc+a8d7Sr/Yw/i4OXU3otFuruzlajGACpBC
EMOMqsgp3iM/vHcYyxxelbntRQAUS1QgeFGpVCE/pUd+
-----END RSA PRIVATE KEY-----
Certificate:
    Data:
        Version: 3 (0x2)
        Serial Number: 2 (0x2)
    Signature Algorithm: sha256WithRSAEncryption
        Issuer: C=KR, CN=gilgil
        Validity
            Not Before: Mar  1 00:00:00 2014 GMT
            Not After : Feb 27 00:00:00 2024 GMT
        Subject: C=KR, CN=mobile.pipe.aria.microsoft.com
        Subject Public Key Info:
            Public Key Algorithm: rsaEncryption
                Public-Key: (1024 bit)
                Modulus:
                    00:bb:39:e5:00:06:bb:41:48:c6:c2:be:a8:24:a2:
                    e5:6e:7a:68:7b:c5:3a:4c:0c:eb:b6:be:24:c7:6f:
                    31:03:79:38:63:21:60:82:09:e7:6c:75:6b:e5:7b:
                    fe:2c:78:49:bc:83:c1:91:64:fb:e5:82:55:ff:5b:
                    81:c5:2c:ef:32:39:39:bd:0d:ac:ff:9e:47:cb:cf:
                    2e:36:63:5b:40:36:71:fc:90:07:7d:59:e9:b0:71:
                    d4:01:40:5f:a4:34:20:d0:89:1c:3a:1d:6f:68:13:
                    74:36:f7:30:7b:8c:bd:c7:87:9a:55:c7:67:96:b5:
                    7a:b5:f5:a8:72:3c:a3:fd:63
                Exponent: 65537 (0x10001)
        X509v3 extensions:
            X509v3 Basic Constraints: 
                CA:FALSE
            Netscape Comment: 
                OpenSSL Generated Certificate
            X509v3 Subject Key Identifier: 
                78:8F:93:06:F2:98:52:20:9D:95:01:17:F1:E9:51:32:8C:62:14:12
            X509v3 Authority Key Identifier: 
                DirName:/C=KR/CN=gilgil
                serial:BC:FE:EF:E9:4A:BC:63:F0

    Signature Algorithm: sha256WithRSAEncryption
         6e:0e:01:91:6e:08:67:fc:ed:38:70:d2:aa:f2:aa:11:a2:86:
         d1:ff:a5:42:6d:c3:4b:d9:4d:6b:42:30:f1:54:39:b0:90:e9:
         93:66:d8:56:c2:b5:66:3b:51:c7:4f:43:ba:c7:16:5d:d5:3e:
         aa:ec:2b:f3:30:6a:f4:59:51:d7:85:3f:a8:f5:de:0d:fe:56:
         b5:bd:43:ac:83:92:65:ca:b4:b8:f4:f0:e9:e7:81:dd:d7:90:
         9f:1d:f5:b1:15:8a:0d:70:c9:c8:4a:73:91:0b:40:ba:ee:b5:
         ff:40:d0:fd:65:eb:30:36:08:eb:f4:69:51:5f:62:d0:a4:90:
         f1:a2
-----BEGIN CERTIFICATE-----
MIICZDCCAc2gAwIBAgIBAjANBgkqhkiG9w0BAQsFADAeMQswCQYDVQQGEwJLUjEP
MA0GA1UEAwwGZ2lsZ2lsMCIYDzIwMTQwMzAxMDAwMDAwWhgPMjAyNDAyMjcwMDAw
MDBaMDYxCzAJBgNVBAYTAktSMScwJQYDVQQDDB5tb2JpbGUucGlwZS5hcmlhLm1p
Y3Jvc29mdC5jb20wgZ8wDQYJKoZIhvcNAQEBBQADgY0AMIGJAoGBALs55QAGu0FI
xsK+qCSi5W56aHvFOkwM67a+JMdvMQN5OGMhYIIJ52x1a+V7/ix4SbyDwZFk++WC
Vf9bgcUs7zI5Ob0NrP+eR8vPLjZjW0A2cfyQB31Z6bBx1AFAX6Q0INCJHDodb2gT
dDb3MHuMvceHmlXHZ5a1erX1qHI8o/1jAgMBAAGjgZUwgZIwCQYDVR0TBAIwADAs
BglghkgBhvhCAQ0EHxYdT3BlblNTTCBHZW5lcmF0ZWQgQ2VydGlmaWNhdGUwHQYD
VR0OBBYEFHiPkwbymFIgnZUBF/HpUTKMYhQSMDgGA1UdIwQxMC+hIqQgMB4xCzAJ
BgNVBAYTAktSMQ8wDQYDVQQDDAZnaWxnaWyCCQC8/u/pSrxj8DANBgkqhkiG9w0B
AQsFAAOBgQBuDgGRbghn/O04cNKq8qoRoobR/6VCbcNL2U1rQjDxVDmwkOmTZthW
wrVmO1HHT0O6xxZd1T6q7CvzMGr0WVHXhT+o9d4N/la1vUOsg5JlyrS49PDp54Hd
15CfHfWxFYoNcMnISnORC0C67rX/QND9ZeswNgjr9GlRX2LQpJDxog==
-----END CERTIFICATE-----
