-----BEGIN RSA PRIVATE KEY-----
MIICXAIBAAKBgQDs7MmyUslQYlm9ukVFxI63MikCtRVK5bxa6trwNp2g5s6SuGmW
gsmvOyQNBMIUAde07EI7gcGJltY0IwMAPwx5tNv/XRc+kz67m9FiYzT3LK9buyP6
k4B36lKMebGMmQ2hw3P7kPWP2HYOGiyuYyarwIsdKrUax0Bd+NQnH7bJMQIDAQAB
AoGAAieVHf4KvqRmVIdhIeVLtvbJ0LB85RV5xQnlu9GDVXdD4amzrB68Xs+W4Fdu
vGfX4llTsN7ZN7sbb5Xx7QqlvmEf8ihsHlbcGQj01l0MvDzouCF3C+w3GOk1Bioo
f0GPtv40FePsGOtWk3CzRoCty1CCq5F4W9/moFMUILfvQQECQQD3HOATBlhgt54t
5N1cCRg/MhEV/FMNZwh78QGksL1dshRIISH3vWmLZXnhkv7f1KHCXxfuqW0kz6Nv
EGiYG4SJAkEA9XIdabuGa+WoJPVnAmdzsqmEH36utqCu3vIiYL7p1m42wHG8YxqU
gNNAWBQDuHRnf+WLMAzRmn5gdqvHF/DFaQJAQ0wh2gyIVQ6sjWMexcnUSKGh9ZLa
K3Q740UnZWqcp7+vtlUPoyB6dfQU1VHrB5oo036CTgTmLHg/0idt1L7pwQJBAJb/
MzUe1p1+VakXB94kwrrBKrUtfFKCG9KwZ5HZIYZ3m1tdHSZi7cUrMUR+W6OYiSvX
jX9sA27mHHYlS4Bg8TECQHa/ry5Fi0X3eCrzkvaLF6ouj/8/KjxTzfVyiUMYMSfV
j5O8SGjIyMBcfYJa/DkmamWvSt/6Z0A+WhO+inPkLpQ=
-----END RSA PRIVATE KEY-----
Certificate:
    Data:
        Version: 3 (0x2)
        Serial Number: 10 (0xa)
    Signature Algorithm: sha256WithRSAEncryption
        Issuer: C=KR, CN=gilgil
        Validity
            Not Before: Mar  1 00:00:00 2014 GMT
            Not After : Feb 27 00:00:00 2024 GMT
        Subject: C=KR, CN=mscom.demdex.net
        Subject Public Key Info:
            Public Key Algorithm: rsaEncryption
                Public-Key: (1024 bit)
                Modulus:
                    00:ec:ec:c9:b2:52:c9:50:62:59:bd:ba:45:45:c4:
                    8e:b7:32:29:02:b5:15:4a:e5:bc:5a:ea:da:f0:36:
                    9d:a0:e6:ce:92:b8:69:96:82:c9:af:3b:24:0d:04:
                    c2:14:01:d7:b4:ec:42:3b:81:c1:89:96:d6:34:23:
                    03:00:3f:0c:79:b4:db:ff:5d:17:3e:93:3e:bb:9b:
                    d1:62:63:34:f7:2c:af:5b:bb:23:fa:93:80:77:ea:
                    52:8c:79:b1:8c:99:0d:a1:c3:73:fb:90:f5:8f:d8:
                    76:0e:1a:2c:ae:63:26:ab:c0:8b:1d:2a:b5:1a:c7:
                    40:5d:f8:d4:27:1f:b6:c9:31
                Exponent: 65537 (0x10001)
        X509v3 extensions:
            X509v3 Basic Constraints: 
                CA:FALSE
            Netscape Comment: 
                OpenSSL Generated Certificate
            X509v3 Subject Key Identifier: 
                6E:19:04:D9:73:C4:29:D5:44:8C:2B:4C:FC:E0:C9:11:36:3A:04:DE
            X509v3 Authority Key Identifier: 
                DirName:/C=KR/CN=gilgil
                serial:BC:FE:EF:E9:4A:BC:63:F0

    Signature Algorithm: sha256WithRSAEncryption
         42:22:08:5c:68:3b:2e:01:b6:ca:ed:02:6f:36:90:bd:b6:fe:
         f7:23:0a:b9:75:b7:99:3b:84:71:3e:53:6c:4a:f5:be:c6:e3:
         0e:07:73:61:f8:e0:ea:d0:ca:70:68:46:0f:98:09:2a:4a:68:
         fc:80:d6:77:56:a4:6c:be:d5:69:11:55:e2:84:a6:09:f5:a8:
         73:9a:f4:ce:2c:02:04:a9:de:a0:e8:67:3b:63:ff:22:a4:bb:
         fa:a0:95:03:a6:f5:35:3c:af:87:34:4d:0d:d8:a6:77:27:8f:
         d9:b3:2e:65:77:44:fe:62:b3:cb:79:13:76:d8:a7:6a:d1:e3:
         c9:55
-----BEGIN CERTIFICATE-----
MIICVjCCAb+gAwIBAgIBCjANBgkqhkiG9w0BAQsFADAeMQswCQYDVQQGEwJLUjEP
MA0GA1UEAwwGZ2lsZ2lsMCIYDzIwMTQwMzAxMDAwMDAwWhgPMjAyNDAyMjcwMDAw
MDBaMCgxCzAJBgNVBAYTAktSMRkwFwYDVQQDDBBtc2NvbS5kZW1kZXgubmV0MIGf
MA0GCSqGSIb3DQEBAQUAA4GNADCBiQKBgQDs7MmyUslQYlm9ukVFxI63MikCtRVK
5bxa6trwNp2g5s6SuGmWgsmvOyQNBMIUAde07EI7gcGJltY0IwMAPwx5tNv/XRc+
kz67m9FiYzT3LK9buyP6k4B36lKMebGMmQ2hw3P7kPWP2HYOGiyuYyarwIsdKrUa
x0Bd+NQnH7bJMQIDAQABo4GVMIGSMAkGA1UdEwQCMAAwLAYJYIZIAYb4QgENBB8W
HU9wZW5TU0wgR2VuZXJhdGVkIENlcnRpZmljYXRlMB0GA1UdDgQWBBRuGQTZc8Qp
1USMK0z84MkRNjoE3jA4BgNVHSMEMTAvoSKkIDAeMQswCQYDVQQGEwJLUjEPMA0G
A1UEAwwGZ2lsZ2lsggkAvP7v6Uq8Y/AwDQYJKoZIhvcNAQELBQADgYEAQiIIXGg7
LgG2yu0CbzaQvbb+9yMKuXW3mTuEcT5TbEr1vsbjDgdzYfjg6tDKcGhGD5gJKkpo
/IDWd1akbL7VaRFV4oSmCfWoc5r0ziwCBKneoOhnO2P/IqS7+qCVA6b1NTyvhzRN
DdimdyeP2bMuZXdE/mKzy3kTdtinatHjyVU=
-----END CERTIFICATE-----
