-----BEGIN RSA PRIVATE KEY-----
MIICXQIBAAKBgQCl7LHUCzNwiuityeHE9cjPTfugJhmdIrFHuGvD/5rrMEBeRt7S
DtcCumbvO2wzfISxwofp4ItG8WEG+pVbG1/CA190J25PLnnqKPx6H8vU6aKKeppT
IqtSjipDCnHZHCLAS8i+Lk+7Gg8VsZBmmX5+PbWHjki59mO/CcOjGjVPTQIDAQAB
AoGAcszxvOSDErsJgjTMIJpt9gDeuE+kKTR3tEfFSDbx2QfpgVFHmc7qtNiDn8Jd
esIMjXEq2Iaj1tHrcAiwjfjCpzwd22qlSQe7EtCIwQ8U14S/1GfTPXYB9Fcpk8JR
dR3Cm2imsUX17W+WTmgpqI60NCUFMnf9Sn1HQMu8S6sOa4ECQQDcGpxP7OCTnrGI
52eqLpG1OaiySqRXXay1jHoOKJkwo7y8Wfb+8AydL7IngILgtkOFVER1ZQza/J8b
6mZp5cH3AkEAwPwVZmgHMSUkr9M2GKEzKXAlqy5pL8FlBuC/4po8OIFmrlB1/upS
UX4FyJ3L6tgclnPrIUqj7ILG732wc9Jn2wJAECykb/soRbDTuwvGQmtJqdei3fc+
PG1V08GO9ptlJn3h0LWLwRBC3Qo0PVLkSz8ZlyKqJTZXy3/k8Vg4Tm/j4QJBAJnY
3N6U1Bbzu3mH8bpU2EqSoxUCnMx7aqS/C3oE5zlMv6T7c/XSq+lXhBjY4zXHL5Mp
uisCLAhigWFvW/oZpL0CQQDNsZYXEelq6446AHmrW7Vjw/70fmxR9XWV+Kef2Jcv
KUhANwGNISQJTk0AH98Ww54/XpRNGw4bBjsRok9ZYLFG
-----END RSA PRIVATE KEY-----
Certificate:
    Data:
        Version: 3 (0x2)
        Serial Number: 9 (0x9)
    Signature Algorithm: sha256WithRSAEncryption
        Issuer: C=KR, CN=gilgil
        Validity
            Not Before: Mar  1 00:00:00 2014 GMT
            Not After : Feb 27 00:00:00 2024 GMT
        Subject: C=KR, CN=mtalk.google.com
        Subject Public Key Info:
            Public Key Algorithm: rsaEncryption
                Public-Key: (1024 bit)
                Modulus:
                    00:a5:ec:b1:d4:0b:33:70:8a:e8:ad:c9:e1:c4:f5:
                    c8:cf:4d:fb:a0:26:19:9d:22:b1:47:b8:6b:c3:ff:
                    9a:eb:30:40:5e:46:de:d2:0e:d7:02:ba:66:ef:3b:
                    6c:33:7c:84:b1:c2:87:e9:e0:8b:46:f1:61:06:fa:
                    95:5b:1b:5f:c2:03:5f:74:27:6e:4f:2e:79:ea:28:
                    fc:7a:1f:cb:d4:e9:a2:8a:7a:9a:53:22:ab:52:8e:
                    2a:43:0a:71:d9:1c:22:c0:4b:c8:be:2e:4f:bb:1a:
                    0f:15:b1:90:66:99:7e:7e:3d:b5:87:8e:48:b9:f6:
                    63:bf:09:c3:a3:1a:35:4f:4d
                Exponent: 65537 (0x10001)
        X509v3 extensions:
            X509v3 Basic Constraints: 
                CA:FALSE
            Netscape Comment: 
                OpenSSL Generated Certificate
            X509v3 Subject Key Identifier: 
                D1:CF:66:E4:57:5F:52:9D:A9:81:3D:4E:40:98:22:BE:FF:72:A9:59
            X509v3 Authority Key Identifier: 
                DirName:/C=KR/CN=gilgil
                serial:BC:FE:EF:E9:4A:BC:63:F0

    Signature Algorithm: sha256WithRSAEncryption
         24:71:53:d0:6a:20:89:11:a2:33:95:0f:d1:3e:4a:c0:f5:bb:
         43:19:b9:99:57:aa:5b:6f:68:d4:1f:d2:01:97:5e:72:80:80:
         31:ad:02:ca:6e:af:51:f3:67:80:c5:07:67:c9:4c:f6:7d:51:
         c4:04:30:cb:0d:94:b3:46:ab:98:36:65:ef:a6:fd:14:9b:6b:
         65:56:09:22:bb:fb:e7:a6:e0:88:ed:0b:9c:a9:6e:8d:60:9c:
         e5:95:fa:95:c3:99:ac:97:f0:ba:e7:41:f0:0b:75:87:45:c1:
         1c:53:ab:31:87:72:5c:bd:76:72:e1:0c:bf:3d:ac:77:d6:55:
         dc:90
-----BEGIN CERTIFICATE-----
MIICVjCCAb+gAwIBAgIBCTANBgkqhkiG9w0BAQsFADAeMQswCQYDVQQGEwJLUjEP
MA0GA1UEAwwGZ2lsZ2lsMCIYDzIwMTQwMzAxMDAwMDAwWhgPMjAyNDAyMjcwMDAw
MDBaMCgxCzAJBgNVBAYTAktSMRkwFwYDVQQDDBBtdGFsay5nb29nbGUuY29tMIGf
MA0GCSqGSIb3DQEBAQUAA4GNADCBiQKBgQCl7LHUCzNwiuityeHE9cjPTfugJhmd
IrFHuGvD/5rrMEBeRt7SDtcCumbvO2wzfISxwofp4ItG8WEG+pVbG1/CA190J25P
LnnqKPx6H8vU6aKKeppTIqtSjipDCnHZHCLAS8i+Lk+7Gg8VsZBmmX5+PbWHjki5
9mO/CcOjGjVPTQIDAQABo4GVMIGSMAkGA1UdEwQCMAAwLAYJYIZIAYb4QgENBB8W
HU9wZW5TU0wgR2VuZXJhdGVkIENlcnRpZmljYXRlMB0GA1UdDgQWBBTRz2bkV19S
namBPU5AmCK+/3KpWTA4BgNVHSMEMTAvoSKkIDAeMQswCQYDVQQGEwJLUjEPMA0G
A1UEAwwGZ2lsZ2lsggkAvP7v6Uq8Y/AwDQYJKoZIhvcNAQELBQADgYEAJHFT0Gog
iRGiM5UP0T5KwPW7Qxm5mVeqW29o1B/SAZdecoCAMa0Cym6vUfNngMUHZ8lM9n1R
xAQwyw2Us0armDZl76b9FJtrZVYJIrv756bgiO0LnKlujWCc5ZX6lcOZrJfwuudB
8At1h0XBHFOrMYdyXL12cuEMvz2sd9ZV3JA=
-----END CERTIFICATE-----
