-----BEGIN RSA PRIVATE KEY-----
MIICXAIBAAKBgQCYph5Gq6w00LB6D6a1qTg+5Mx0oa79Teac9CPbOdVzAoCLkmYW
HilUFnSrVIamzz3HOkwCGpsVeFoUqatzURcHCJEJ4vKYg5UBPUFoODz7m0NwzH9p
OK8O13FeeSYIQ4D6linIqEC1wXWtp9VYpfzUEK7fQswYHE8feHkBlJhWAwIDAQAB
AoGAQh3hizacVhv19EiHKrPq2sL7E6FcS/bL5juQtEmufCwfRVTZxsa1m+hGDFeG
IwYsefh0J40ikwAX9E8xJbd/wy7an4AR1ssxp3Y1GYDabvW//C1/Molx8+sHFlxh
1fr3fuZ39Qbz4bPsvs/L9RpGk+JWHkD3VUrrgUHIrzhIxXECQQDJQWtNtZ5fjKrX
juW8iPpOzllNDxmsFy5Id17jgG1QsMNxIrRsFwRIoHnFIbwUBjCJRoU7Q62cD8lo
/Ziy06wVAkEAwivwX/HTscgjPtKHMPnmfnKV1YRnWjF8jVy4gVp6RrC975gZ/6iK
v4i4CcfuZvdJY7ZWrstUyDVFGBF4D3THtwJAaY1J/eO3QF3CbHOhwhQFU7ed1nCJ
AlzWBWO1/JOqwZszpe6Rue8IbB7ePqnGvqnQYu79iWuhbixJcisvHvstUQJBAJ+b
nKBRWTFHEWm/hm9EzCneqLl1d7tU+Ev/Do8Nv3tCJy6+eYiEk2Cz0ov/s0EiPkpf
hMtzykI0P5J0MZuK4+sCQBR+6grPQnvgJmuBFIALF9uw2K6JTiROxZPWNvb/quf9
on7/T4IiKaOwrrlQM3igbU2osLsgg0umkIOJm4fglyA=
-----END RSA PRIVATE KEY-----
Certificate:
    Data:
        Version: 3 (0x2)
        Serial Number: 19 (0x13)
    Signature Algorithm: sha256WithRSAEncryption
        Issuer: C=KR, CN=gilgil
        Validity
            Not Before: Mar  1 00:00:00 2014 GMT
            Not After : Feb 27 00:00:00 2024 GMT
        Subject: C=KR, CN=navdmp.com
        Subject Public Key Info:
            Public Key Algorithm: rsaEncryption
                Public-Key: (1024 bit)
                Modulus:
                    00:98:a6:1e:46:ab:ac:34:d0:b0:7a:0f:a6:b5:a9:
                    38:3e:e4:cc:74:a1:ae:fd:4d:e6:9c:f4:23:db:39:
                    d5:73:02:80:8b:92:66:16:1e:29:54:16:74:ab:54:
                    86:a6:cf:3d:c7:3a:4c:02:1a:9b:15:78:5a:14:a9:
                    ab:73:51:17:07:08:91:09:e2:f2:98:83:95:01:3d:
                    41:68:38:3c:fb:9b:43:70:cc:7f:69:38:af:0e:d7:
                    71:5e:79:26:08:43:80:fa:96:29:c8:a8:40:b5:c1:
                    75:ad:a7:d5:58:a5:fc:d4:10:ae:df:42:cc:18:1c:
                    4f:1f:78:79:01:94:98:56:03
                Exponent: 65537 (0x10001)
        X509v3 extensions:
            X509v3 Basic Constraints: 
                CA:FALSE
            Netscape Comment: 
                OpenSSL Generated Certificate
            X509v3 Subject Key Identifier: 
                17:2C:25:36:1A:31:ED:F0:E4:49:A5:97:65:17:20:F1:14:16:20:6F
            X509v3 Authority Key Identifier: 
                DirName:/C=KR/CN=gilgil
                serial:BC:FE:EF:E9:4A:BC:63:F0

    Signature Algorithm: sha256WithRSAEncryption
         33:e8:bf:81:5f:21:46:46:9b:1e:97:0a:f4:f6:a4:43:34:f4:
         90:73:5c:78:cc:e0:d8:a8:df:ef:f8:2c:61:a7:93:ff:cc:25:
         a4:ba:c0:7a:e4:5a:04:3c:10:34:b3:60:6a:27:f2:7a:b0:50:
         a6:d4:17:a8:14:9e:8d:e5:b3:1f:26:0d:d6:a3:81:1b:8a:70:
         ed:2a:46:9c:17:46:c3:1b:c3:70:aa:91:6d:2a:52:15:30:26:
         d5:e2:67:a0:35:14:23:01:96:f6:f8:25:65:bc:bc:f6:cb:8d:
         f5:a6:14:f5:52:99:29:80:04:77:92:d6:e5:9a:bf:e6:96:54:
         62:1d
-----BEGIN CERTIFICATE-----
MIICUDCCAbmgAwIBAgIBEzANBgkqhkiG9w0BAQsFADAeMQswCQYDVQQGEwJLUjEP
MA0GA1UEAwwGZ2lsZ2lsMCIYDzIwMTQwMzAxMDAwMDAwWhgPMjAyNDAyMjcwMDAw
MDBaMCIxCzAJBgNVBAYTAktSMRMwEQYDVQQDDApuYXZkbXAuY29tMIGfMA0GCSqG
SIb3DQEBAQUAA4GNADCBiQKBgQCYph5Gq6w00LB6D6a1qTg+5Mx0oa79Teac9CPb
OdVzAoCLkmYWHilUFnSrVIamzz3HOkwCGpsVeFoUqatzURcHCJEJ4vKYg5UBPUFo
ODz7m0NwzH9pOK8O13FeeSYIQ4D6linIqEC1wXWtp9VYpfzUEK7fQswYHE8feHkB
lJhWAwIDAQABo4GVMIGSMAkGA1UdEwQCMAAwLAYJYIZIAYb4QgENBB8WHU9wZW5T
U0wgR2VuZXJhdGVkIENlcnRpZmljYXRlMB0GA1UdDgQWBBQXLCU2GjHt8ORJpZdl
FyDxFBYgbzA4BgNVHSMEMTAvoSKkIDAeMQswCQYDVQQGEwJLUjEPMA0GA1UEAwwG
Z2lsZ2lsggkAvP7v6Uq8Y/AwDQYJKoZIhvcNAQELBQADgYEAM+i/gV8hRkabHpcK
9PakQzT0kHNceMzg2Kjf7/gsYaeT/8wlpLrAeuRaBDwQNLNgaifyerBQptQXqBSe
jeWzHyYN1qOBG4pw7SpGnBdGwxvDcKqRbSpSFTAm1eJnoDUUIwGW9vglZby89suN
9aYU9VKZKYAEd5LW5Zq/5pZUYh0=
-----END CERTIFICATE-----
