-----BEGIN RSA PRIVATE KEY-----
MIICXAIBAAKBgQDBJGOV4TEtW/pqzfOPQY6243w8xifaRrvX4qJpqemc4OZ8brk2
uGlZoIDauG3YzR07IeZ7dtiHQ1OPLxgsxLXCnDSZFdk1YtRy73L2wVB5gInPPkwN
Yh89nE26RmrYLmUGQXoosCQbMQVu18exvcdqis/tK7joclsqtO820f2/hQIDAQAB
AoGAYKbxHuPeVDCfFCuUIrBP1r3oQhF3iAe1oMdNN0tMGLGDJenSzctjDPMBCHMa
pU+fvSOtz0MeADJ08kZC9sRJoAcc+qW/B5HdLiue2xA2iJOKzj8Ah2ZQYNoT+3Yr
nT5gntPfY3O9uWW4zizmoZQFNXbKg1glTGPEobuVPxfPbwECQQDlF328IXvP2IQJ
RrBs/FWlRiYgrkOHSc1w0DX1FGO/bJtROpU/LAwUaR6URTPZg5kVwopUDrELSTyR
3xRSUL7RAkEA19Pv1ck7HNxFwZI6qL57BAv5uF5i66ozS+TCp2V6UbMXsXjgQegA
WPK1ke+5CgX8A743475J8OG9rTvzj9RqdQJAeNb4Sqj6zvqtQttXqlU7s+8Zo3lo
Q09pn00keP7lUo6uKp2VJfpM8OM17w3FuMFSmYjBQG9zcbmSynr6FCVlUQJBALEc
BjAVliC00blrWh+nUCOeACq/qcViQf4Bl4rux1XL9aF5Y+4xiDd11HIRmnMTPh+E
NTD6soqtdI14KQLaeRECQBPzH1pB1uBZZ+1D/ykp5OPM22xruMNlt373Rhc0/WlR
wazbwgfE2SBWMcwQdllrOxIRxFg5J99/saGqZRJ6Bwk=
-----END RSA PRIVATE KEY-----
Certificate:
    Data:
        Version: 3 (0x2)
        Serial Number: 4 (0x4)
    Signature Algorithm: sha256WithRSAEncryption
        Issuer: C=KR, CN=gilgil
        Validity
            Not Before: Mar  1 00:00:00 2014 GMT
            Not After : Feb 27 00:00:00 2024 GMT
        Subject: C=KR, CN=nexus.officeapps.live.com
        Subject Public Key Info:
            Public Key Algorithm: rsaEncryption
                Public-Key: (1024 bit)
                Modulus:
                    00:c1:24:63:95:e1:31:2d:5b:fa:6a:cd:f3:8f:41:
                    8e:b6:e3:7c:3c:c6:27:da:46:bb:d7:e2:a2:69:a9:
                    e9:9c:e0:e6:7c:6e:b9:36:b8:69:59:a0:80:da:b8:
                    6d:d8:cd:1d:3b:21:e6:7b:76:d8:87:43:53:8f:2f:
                    18:2c:c4:b5:c2:9c:34:99:15:d9:35:62:d4:72:ef:
                    72:f6:c1:50:79:80:89:cf:3e:4c:0d:62:1f:3d:9c:
                    4d:ba:46:6a:d8:2e:65:06:41:7a:28:b0:24:1b:31:
                    05:6e:d7:c7:b1:bd:c7:6a:8a:cf:ed:2b:b8:e8:72:
                    5b:2a:b4:ef:36:d1:fd:bf:85
                Exponent: 65537 (0x10001)
        X509v3 extensions:
            X509v3 Basic Constraints: 
                CA:FALSE
            Netscape Comment: 
                OpenSSL Generated Certificate
            X509v3 Subject Key Identifier: 
                2C:6D:22:B2:88:45:BF:EA:22:51:87:89:03:AC:60:EF:62:55:B3:1B
            X509v3 Authority Key Identifier: 
                DirName:/C=KR/CN=gilgil
                serial:BC:FE:EF:E9:4A:BC:63:F0

    Signature Algorithm: sha256WithRSAEncryption
         52:b8:d2:a5:46:54:4e:1d:b0:51:a8:49:cd:2f:2f:48:5b:bf:
         0f:0b:eb:7d:e0:2b:7a:5f:cb:48:37:ab:05:37:2b:44:0e:8b:
         08:be:ff:eb:92:e4:e5:2b:24:5a:46:55:af:7b:7c:9f:11:06:
         71:b5:d6:dc:f2:d0:b1:3f:64:6f:b8:b6:b4:8c:7f:8d:4d:27:
         5d:aa:36:3c:04:65:db:d6:99:81:6b:c2:f2:45:c9:be:54:5c:
         e5:82:ff:44:81:63:14:5d:07:ff:94:dd:33:e9:85:a2:72:a0:
         92:7a:89:da:a7:86:a4:f0:76:e0:24:4b:37:a6:78:a4:df:19:
         af:e5
-----BEGIN CERTIFICATE-----
MIICXzCCAcigAwIBAgIBBDANBgkqhkiG9w0BAQsFADAeMQswCQYDVQQGEwJLUjEP
MA0GA1UEAwwGZ2lsZ2lsMCIYDzIwMTQwMzAxMDAwMDAwWhgPMjAyNDAyMjcwMDAw
MDBaMDExCzAJBgNVBAYTAktSMSIwIAYDVQQDDBluZXh1cy5vZmZpY2VhcHBzLmxp
dmUuY29tMIGfMA0GCSqGSIb3DQEBAQUAA4GNADCBiQKBgQDBJGOV4TEtW/pqzfOP
QY6243w8xifaRrvX4qJpqemc4OZ8brk2uGlZoIDauG3YzR07IeZ7dtiHQ1OPLxgs
xLXCnDSZFdk1YtRy73L2wVB5gInPPkwNYh89nE26RmrYLmUGQXoosCQbMQVu18ex
vcdqis/tK7joclsqtO820f2/hQIDAQABo4GVMIGSMAkGA1UdEwQCMAAwLAYJYIZI
AYb4QgENBB8WHU9wZW5TU0wgR2VuZXJhdGVkIENlcnRpZmljYXRlMB0GA1UdDgQW
BBQsbSKyiEW/6iJRh4kDrGDvYlWzGzA4BgNVHSMEMTAvoSKkIDAeMQswCQYDVQQG
EwJLUjEPMA0GA1UEAwwGZ2lsZ2lsggkAvP7v6Uq8Y/AwDQYJKoZIhvcNAQELBQAD
gYEAUrjSpUZUTh2wUahJzS8vSFu/DwvrfeArel/LSDerBTcrRA6LCL7/65Lk5Ssk
WkZVr3t8nxEGcbXW3PLQsT9kb7i2tIx/jU0nXao2PARl29aZgWvC8kXJvlRc5YL/
RIFjFF0H/5TdM+mFonKgknqJ2qeGpPB24CRLN6Z4pN8Zr+U=
-----END CERTIFICATE-----
