-----BEGIN RSA PRIVATE KEY-----
MIICXgIBAAKBgQDE0NQnkf9BOupDEv1oVZkRe/jKWr3raE6TQfVUS11sZRWpCE/E
hvRU7Y7DCQ4jmHP+Nbk22AYnjeUwoEmSkqKksHjVch46ojx53WRlHt/RgWcpqBgI
8QkIzpVK+hkeHnU80fitIKjbBjKTpzu0EsHaQZVyn7WTR2yV1MnmFPKiVQIDAQAB
AoGBALmd+XgYSRPL7IO1tShhEitbMBgn3FXX2cMnwafuK/2+l98C57gBTw2JvcpT
D/KiJULqh/MhaSyEtlJV2Q1THe9r05vr5EkuA/MdrHm16B5Qk1P69w/4ABDb3LmL
1RzUFHdchr0lhgi21AokIeyeWusiR29hs2w3d10yBnh/2PlBAkEA8Ki/8Zx+o/IV
A1W0Po1uxHLzpbSNGXHZYCDJPkKAVunEDx+AxN0vkOEr3PcL/CdP1sxMATZ9n6At
ac4G89gexwJBANFcnCoGHsq+oFr0JwZ8USP/IGmXU+KoT/ydG5OeQE0Srk2PCyxE
WrA+x5UR5A+uLvn76BbDrrGGeVgU8bmVigMCQCUv/lEIfK06yDJ2uN59nmMu3CV7
693FsPBgwJglUI2dm9U2agCBqUr68Hs5lZmGPZkUgp4hXHIhH0NdOcfOWpsCQQC5
Ucud2zsIZgKVYAbnU8WTInLzZJNJT4k152+QlIUAdCe72YGfVoYb+gY6atLAGoPU
nenLtLz+wTTKBggOKVM3AkEA6osRr1k+reO7E6FYJcqDIYr5x9CvvqlzPzIOvaQ+
uF5sBxlJWj/dtQYCm3rwQtnh5g4F/0CG8N5o7sEK0Al3uQ==
-----END RSA PRIVATE KEY-----
Certificate:
    Data:
        Version: 3 (0x2)
        Serial Number: 4 (0x4)
    Signature Algorithm: sha256WithRSAEncryption
        Issuer: C=KR, CN=gilgil
        Validity
            Not Before: Mar  1 00:00:00 2014 GMT
            Not After : Feb 27 00:00:00 2024 GMT
        Subject: C=KR, CN=notifications.google.com
        Subject Public Key Info:
            Public Key Algorithm: rsaEncryption
                Public-Key: (1024 bit)
                Modulus:
                    00:c4:d0:d4:27:91:ff:41:3a:ea:43:12:fd:68:55:
                    99:11:7b:f8:ca:5a:bd:eb:68:4e:93:41:f5:54:4b:
                    5d:6c:65:15:a9:08:4f:c4:86:f4:54:ed:8e:c3:09:
                    0e:23:98:73:fe:35:b9:36:d8:06:27:8d:e5:30:a0:
                    49:92:92:a2:a4:b0:78:d5:72:1e:3a:a2:3c:79:dd:
                    64:65:1e:df:d1:81:67:29:a8:18:08:f1:09:08:ce:
                    95:4a:fa:19:1e:1e:75:3c:d1:f8:ad:20:a8:db:06:
                    32:93:a7:3b:b4:12:c1:da:41:95:72:9f:b5:93:47:
                    6c:95:d4:c9:e6:14:f2:a2:55
                Exponent: 65537 (0x10001)
        X509v3 extensions:
            X509v3 Basic Constraints: 
                CA:FALSE
            Netscape Comment: 
                OpenSSL Generated Certificate
            X509v3 Subject Key Identifier: 
                2A:D4:4E:7E:E6:90:9E:81:29:2C:35:D2:B3:3B:AC:A6:83:62:53:C2
            X509v3 Authority Key Identifier: 
                DirName:/C=KR/CN=gilgil
                serial:BC:FE:EF:E9:4A:BC:63:F0

    Signature Algorithm: sha256WithRSAEncryption
         6f:8b:06:65:f4:6b:c5:07:67:a3:9b:cb:dd:99:58:36:de:5e:
         5b:72:eb:37:cd:e3:0b:c2:01:b2:6f:54:07:02:05:97:c8:30:
         67:9a:0b:e2:61:28:a3:7e:cc:b5:d8:a2:78:5d:90:9b:63:b1:
         10:4b:4e:61:a4:4e:86:01:49:49:3f:07:fd:67:d2:b4:7e:a9:
         e0:f1:1f:29:a5:04:7d:98:95:01:ab:80:90:8e:a9:31:5b:9e:
         a6:bd:31:f6:94:c5:6b:57:fa:28:41:0d:6e:08:cf:1b:0c:f6:
         48:40:e0:66:96:e3:e6:74:2f:43:60:1f:c6:1d:8b:9d:e7:67:
         cd:6b
-----BEGIN CERTIFICATE-----
MIICXjCCAcegAwIBAgIBBDANBgkqhkiG9w0BAQsFADAeMQswCQYDVQQGEwJLUjEP
MA0GA1UEAwwGZ2lsZ2lsMCIYDzIwMTQwMzAxMDAwMDAwWhgPMjAyNDAyMjcwMDAw
MDBaMDAxCzAJBgNVBAYTAktSMSEwHwYDVQQDDBhub3RpZmljYXRpb25zLmdvb2ds
ZS5jb20wgZ8wDQYJKoZIhvcNAQEBBQADgY0AMIGJAoGBAMTQ1CeR/0E66kMS/WhV
mRF7+MpavetoTpNB9VRLXWxlFakIT8SG9FTtjsMJDiOYc/41uTbYBieN5TCgSZKS
oqSweNVyHjqiPHndZGUe39GBZymoGAjxCQjOlUr6GR4edTzR+K0gqNsGMpOnO7QS
wdpBlXKftZNHbJXUyeYU8qJVAgMBAAGjgZUwgZIwCQYDVR0TBAIwADAsBglghkgB
hvhCAQ0EHxYdT3BlblNTTCBHZW5lcmF0ZWQgQ2VydGlmaWNhdGUwHQYDVR0OBBYE
FCrUTn7mkJ6BKSw10rM7rKaDYlPCMDgGA1UdIwQxMC+hIqQgMB4xCzAJBgNVBAYT
AktSMQ8wDQYDVQQDDAZnaWxnaWyCCQC8/u/pSrxj8DANBgkqhkiG9w0BAQsFAAOB
gQBviwZl9GvFB2ejm8vdmVg23l5bcus3zeMLwgGyb1QHAgWXyDBnmgviYSijfsy1
2KJ4XZCbY7EQS05hpE6GAUlJPwf9Z9K0fqng8R8ppQR9mJUBq4CQjqkxW56mvTH2
lMVrV/ooQQ1uCM8bDPZIQOBmluPmdC9DYB/GHYud52fNaw==
-----END CERTIFICATE-----
