-----BEGIN RSA PRIVATE KEY-----
MIICXQIBAAKBgQDJNlN7RfIRb90FpjAPcn4bIk7ey9oUOASLN3BkrXe8Vhx2KFGu
8YahYjzuG7o0pb+e7NCswwXXjdzlqT+xygrFIg1irkcvORqeWj35W7/3+cx02jle
6G+HF8SeKgphbr61cbBs1DHjE9WFJ9JPdeaBsNjuaY3SLM2sF0LQFVMlFwIDAQAB
AoGAQaQbb+fNpKqdrC4fF6r+QNPcbwqJxnbP5KrdW7rLiQF+n31fyHa6uQNXZUZe
ZLZ94NbY7MNisINzQOkKAnIrOLe/y1VZYcBNzPjyUKf8OWdfL1CGOKBOv4soIDwa
NiV5TSBudTivyOhmhP8ZXkxq37kFU41uWvce5SwcJlLTxyECQQD48dpgoF/LmBBT
h8YzgbC1rwfpFeQxkvvlF5rnM4FCq/8+y1lmsF23qhmoekcbgrAUI2N9IFDZTYXR
y1m7JUJ1AkEAzuop1xozXWwsJLPhtTA6e55TzOlSHeRBtDBAwX4x1ljlHYndE7C5
/qMX5qAlZ3OG2VT6oU4hCgHMYkijuKa/2wJAaoqXe2MnnGqoEhe5q7GFfzw5lnfY
AZ92TsWbdfeFCpOx2Z4N1PUGJuSVtpUeeZek4/mBSrvZ3iZfbzooXP/FQQJBAIGh
Dilmjrt+o4Ey+Lqsxlbf8Bw2KG31rHwYptkSGGLzOkbxMgG9/ChdQQIJXqWbKOZL
aOFZszUzvznrzDZIsXUCQQCdEjX7sY+7t9me6OkfTnmuMgt5wyUddGqib8KEDJ46
m9c/XBrtUN6JaP8K0qpoR+rNmpue3SFY2NWibL6q6qvh
-----END RSA PRIVATE KEY-----
Certificate:
    Data:
        Version: 3 (0x2)
        Serial Number: 9 (0x9)
    Signature Algorithm: sha256WithRSAEncryption
        Issuer: C=KR, CN=gilgil
        Validity
            Not Before: Mar  1 00:00:00 2014 GMT
            Not After : Feb 27 00:00:00 2024 GMT
        Subject: C=KR, CN=notifications.google.com
        Subject Public Key Info:
            Public Key Algorithm: rsaEncryption
                Public-Key: (1024 bit)
                Modulus:
                    00:c9:36:53:7b:45:f2:11:6f:dd:05:a6:30:0f:72:
                    7e:1b:22:4e:de:cb:da:14:38:04:8b:37:70:64:ad:
                    77:bc:56:1c:76:28:51:ae:f1:86:a1:62:3c:ee:1b:
                    ba:34:a5:bf:9e:ec:d0:ac:c3:05:d7:8d:dc:e5:a9:
                    3f:b1:ca:0a:c5:22:0d:62:ae:47:2f:39:1a:9e:5a:
                    3d:f9:5b:bf:f7:f9:cc:74:da:39:5e:e8:6f:87:17:
                    c4:9e:2a:0a:61:6e:be:b5:71:b0:6c:d4:31:e3:13:
                    d5:85:27:d2:4f:75:e6:81:b0:d8:ee:69:8d:d2:2c:
                    cd:ac:17:42:d0:15:53:25:17
                Exponent: 65537 (0x10001)
        X509v3 extensions:
            X509v3 Basic Constraints: 
                CA:FALSE
            Netscape Comment: 
                OpenSSL Generated Certificate
            X509v3 Subject Key Identifier: 
                00:CB:70:64:8A:DA:58:81:F7:69:54:6B:62:7F:BD:BB:AB:08:E5:0D
            X509v3 Authority Key Identifier: 
                DirName:/C=KR/CN=gilgil
                serial:BC:FE:EF:E9:4A:BC:63:F0

    Signature Algorithm: sha256WithRSAEncryption
         93:09:e2:52:d3:1c:62:bc:a4:12:c2:47:13:3a:76:55:fe:83:
         fa:b7:30:32:cf:ae:2d:58:34:0c:37:00:df:9b:65:c0:7b:76:
         e0:67:87:7e:96:a8:26:83:18:6e:ff:28:7d:10:a8:e7:f6:73:
         01:3b:16:f1:b4:96:df:1d:96:0c:b0:3d:b6:fa:9d:6e:48:48:
         4e:35:07:06:2d:9d:8e:e6:a0:7d:9e:ba:a2:48:eb:c9:87:21:
         78:bf:e4:19:76:b6:ca:cc:6b:be:ee:63:b7:0e:35:97:5f:31:
         c4:5e:99:b9:fa:3e:b9:d6:e2:8a:67:5f:18:76:8c:a3:35:80:
         c9:6a
-----BEGIN CERTIFICATE-----
MIICXjCCAcegAwIBAgIBCTANBgkqhkiG9w0BAQsFADAeMQswCQYDVQQGEwJLUjEP
MA0GA1UEAwwGZ2lsZ2lsMCIYDzIwMTQwMzAxMDAwMDAwWhgPMjAyNDAyMjcwMDAw
MDBaMDAxCzAJBgNVBAYTAktSMSEwHwYDVQQDDBhub3RpZmljYXRpb25zLmdvb2ds
ZS5jb20wgZ8wDQYJKoZIhvcNAQEBBQADgY0AMIGJAoGBAMk2U3tF8hFv3QWmMA9y
fhsiTt7L2hQ4BIs3cGStd7xWHHYoUa7xhqFiPO4bujSlv57s0KzDBdeN3OWpP7HK
CsUiDWKuRy85Gp5aPflbv/f5zHTaOV7ob4cXxJ4qCmFuvrVxsGzUMeMT1YUn0k91
5oGw2O5pjdIszawXQtAVUyUXAgMBAAGjgZUwgZIwCQYDVR0TBAIwADAsBglghkgB
hvhCAQ0EHxYdT3BlblNTTCBHZW5lcmF0ZWQgQ2VydGlmaWNhdGUwHQYDVR0OBBYE
FADLcGSK2liB92lUa2J/vburCOUNMDgGA1UdIwQxMC+hIqQgMB4xCzAJBgNVBAYT
AktSMQ8wDQYDVQQDDAZnaWxnaWyCCQC8/u/pSrxj8DANBgkqhkiG9w0BAQsFAAOB
gQCTCeJS0xxivKQSwkcTOnZV/oP6tzAyz64tWDQMNwDfm2XAe3bgZ4d+lqgmgxhu
/yh9EKjn9nMBOxbxtJbfHZYMsD22+p1uSEhONQcGLZ2O5qB9nrqiSOvJhyF4v+QZ
drbKzGu+7mO3DjWXXzHEXpm5+j651uKKZ18YdoyjNYDJag==
-----END CERTIFICATE-----
