-----BEGIN RSA PRIVATE KEY-----
MIICXAIBAAKBgQDE7x5+xJ45kAYlPELWD8WHLrKtXftriHOOqLxMAn59IFsJ9rrV
tVQn+f7JrSY6tUwhudIqvnfxMte+7wm+0KOn+7StJUUjPRm3Y3FxdfY9l2LTYVCz
ZjNgxb6jDWg/LG2XmFr4j/RGTP2klcVykOIZdWF72aRVpTdUI+TXZyXv7wIDAQAB
AoGBALdxIg/lqJloDkFrE7sAb/gPSMLzM3qkXTf694M6I4b8t7DdUoY1ZVHjrjFA
h8bSEDuuMxY729AikxM46PQEtxvjDzaBt9KjJJOfo1RW2ILRv8b9eYP6PtzpYfQ1
d8Cz0Ji5N5yuq4rd7Nk0DFVoUUvBB+JnWZZn+LU4NObY5cZhAkEA+xoNp+Z1xx4e
ANBxWXrpm8GjlTsIPh5NvHG5u19z+DDSEWsMT3aPLNV+pQiR8iTy2YzTwy7ZOwsL
P4PWH650sQJBAMjGkHCIPN638T8Sj2xNICZ56Vy+z6UnYeozuzC2ialfdkq4sexp
IJK6dnXEASNKyjMYeM4d+AhEYCMRII4YVp8CQA9MihJ1xy1Hl3pjONTD2WHlDWt1
Ok5WmFPn9fIFodI4X0QyaoCY76ZCp8G0YPgI6kb4/poAy7l+NcQ76xrpDTECQBqn
IW2O6GW4jXIOCLQb2PTColQJkI8gF0N78pGY6dVuMsngkt4LZqOT1T308yG4P/dg
fEkAeXi/evOsxmGWoYkCQFlGAKG5x6vG8L5nBP+faPx8B3rI72PDnCKklQEgyuOj
fkeNE09/66F91nDvYWCQZK1ruCoAtzbY7ALBdjgW30E=
-----END RSA PRIVATE KEY-----
Certificate:
    Data:
        Version: 3 (0x2)
        Serial Number: 25 (0x19)
    Signature Algorithm: sha256WithRSAEncryption
        Issuer: C=KR, CN=gilgil
        Validity
            Not Before: Mar  1 00:00:00 2014 GMT
            Not After : Feb 27 00:00:00 2024 GMT
        Subject: C=KR, CN=p.rfihub.com
        Subject Public Key Info:
            Public Key Algorithm: rsaEncryption
                Public-Key: (1024 bit)
                Modulus:
                    00:c4:ef:1e:7e:c4:9e:39:90:06:25:3c:42:d6:0f:
                    c5:87:2e:b2:ad:5d:fb:6b:88:73:8e:a8:bc:4c:02:
                    7e:7d:20:5b:09:f6:ba:d5:b5:54:27:f9:fe:c9:ad:
                    26:3a:b5:4c:21:b9:d2:2a:be:77:f1:32:d7:be:ef:
                    09:be:d0:a3:a7:fb:b4:ad:25:45:23:3d:19:b7:63:
                    71:71:75:f6:3d:97:62:d3:61:50:b3:66:33:60:c5:
                    be:a3:0d:68:3f:2c:6d:97:98:5a:f8:8f:f4:46:4c:
                    fd:a4:95:c5:72:90:e2:19:75:61:7b:d9:a4:55:a5:
                    37:54:23:e4:d7:67:25:ef:ef
                Exponent: 65537 (0x10001)
        X509v3 extensions:
            X509v3 Basic Constraints: 
                CA:FALSE
            Netscape Comment: 
                OpenSSL Generated Certificate
            X509v3 Subject Key Identifier: 
                46:73:73:85:26:40:77:1A:CE:A2:B1:88:42:63:D7:D1:5D:E0:43:57
            X509v3 Authority Key Identifier: 
                DirName:/C=KR/CN=gilgil
                serial:BC:FE:EF:E9:4A:BC:63:F0

    Signature Algorithm: sha256WithRSAEncryption
         54:9e:1f:58:cc:9f:60:0d:4c:db:03:ee:ee:e1:4f:06:d2:aa:
         73:1a:cf:ff:20:2d:60:77:9f:8e:59:bb:d8:01:90:b0:6b:f8:
         4b:d4:6e:be:74:a1:2f:48:1f:9f:e9:d4:d1:15:17:46:85:95:
         8a:0e:04:1a:5c:f9:4b:73:ce:e6:8a:c5:75:c0:d4:0e:82:f8:
         d4:65:ae:b5:73:56:76:0f:48:83:9a:e4:6c:76:eb:92:a8:a9:
         fa:ac:c1:95:34:ed:65:92:a9:19:cf:7a:61:97:0b:5e:a8:fd:
         8a:52:17:a7:ef:6f:0b:07:e2:fe:8a:9f:9b:af:1e:a1:b8:a2:
         93:89
-----BEGIN CERTIFICATE-----
MIICUjCCAbugAwIBAgIBGTANBgkqhkiG9w0BAQsFADAeMQswCQYDVQQGEwJLUjEP
MA0GA1UEAwwGZ2lsZ2lsMCIYDzIwMTQwMzAxMDAwMDAwWhgPMjAyNDAyMjcwMDAw
MDBaMCQxCzAJBgNVBAYTAktSMRUwEwYDVQQDDAxwLnJmaWh1Yi5jb20wgZ8wDQYJ
KoZIhvcNAQEBBQADgY0AMIGJAoGBAMTvHn7EnjmQBiU8QtYPxYcusq1d+2uIc46o
vEwCfn0gWwn2utW1VCf5/smtJjq1TCG50iq+d/Ey177vCb7Qo6f7tK0lRSM9Gbdj
cXF19j2XYtNhULNmM2DFvqMNaD8sbZeYWviP9EZM/aSVxXKQ4hl1YXvZpFWlN1Qj
5NdnJe/vAgMBAAGjgZUwgZIwCQYDVR0TBAIwADAsBglghkgBhvhCAQ0EHxYdT3Bl
blNTTCBHZW5lcmF0ZWQgQ2VydGlmaWNhdGUwHQYDVR0OBBYEFEZzc4UmQHcazqKx
iEJj19Fd4ENXMDgGA1UdIwQxMC+hIqQgMB4xCzAJBgNVBAYTAktSMQ8wDQYDVQQD
DAZnaWxnaWyCCQC8/u/pSrxj8DANBgkqhkiG9w0BAQsFAAOBgQBUnh9YzJ9gDUzb
A+7u4U8G0qpzGs//IC1gd5+OWbvYAZCwa/hL1G6+dKEvSB+f6dTRFRdGhZWKDgQa
XPlLc87misV1wNQOgvjUZa61c1Z2D0iDmuRsduuSqKn6rMGVNO1lkqkZz3phlwte
qP2KUhen728LB+L+ip+brx6huKKTiQ==
-----END CERTIFICATE-----
