-----BEGIN RSA PRIVATE KEY-----
MIICXgIBAAKBgQDkWBWNTiGx8a3BAZBc08O07lr75O8a0R8O5VNjLzkN1lPBRGXL
ILneswM78rZnAVaMM5ikpeiEvOWlu3O/L+P7ejdec3wpI92OHJJCoHcsvXpQ+AaG
3kIYnTfMZupKmmyLEj0+WJhUq4AaqcAfhHzA9xQP2/AkQ5oAq2xLIXH+7QIDAQAB
AoGAflOg8MD18T0UdH/J/yEE17c6TLs18O8asKH8hRXeCaK2SWjuq/cZ/XOp6WN4
t/nMiNoOq6BByBW9MvhGq9Hx3OYN7fXX4cZtFearLzfmlCLjdK68L3bJ2ANVF2Ep
br9LSYRMg4wW7HVseDeBUNvgsIEBurDs2HEWxpvrAZzVTp0CQQD1k5e2N6qcLUG5
zHZnToXPbtp4TkpEYuO91tunIgmMRnDVHJJjxtiB29ZC36W1D1ZyMlDfWxXvqKbD
xvjsQyWvAkEA7gk+4PtR3m/+haizjXU/EEcoOPq52eHQNsLf26/+gpKT07mmaM7p
Ohf3aX/rCMx/+ov9JPykF84icCkBsEeoIwJBAOGTBC1drrqsm432cOBt8V3b/pO5
nmB40ackgDlie5C9d5FaIGHEWkXWUFa3JnhNMWPOMhkoitrMePqmfypOd4MCQQDZ
rpDXNF4ZOngbiTyyZ3+Fhl1NRlUB4RUFj08i2563kA4qOIPrIxV8cABtdXLeOA3t
dWnKElSKBJPP2GBX8h/bAkEA5sktp4YpETng1nV35Ln2kBm62dhm24fbNCZTKhjY
Ky5/VGwzjJscGCL7+hWhAaMsKBq5dEaq6QJeJ2ZzWflgKw==
-----END RSA PRIVATE KEY-----
Certificate:
    Data:
        Version: 3 (0x2)
        Serial Number: 7 (0x7)
    Signature Algorithm: sha256WithRSAEncryption
        Issuer: C=KR, CN=gilgil
        Validity
            Not Before: Mar  1 00:00:00 2014 GMT
            Not After : Feb 27 00:00:00 2024 GMT
        Subject: C=KR, CN=pagead2.googlesyndication.com
        Subject Public Key Info:
            Public Key Algorithm: rsaEncryption
                Public-Key: (1024 bit)
                Modulus:
                    00:e4:58:15:8d:4e:21:b1:f1:ad:c1:01:90:5c:d3:
                    c3:b4:ee:5a:fb:e4:ef:1a:d1:1f:0e:e5:53:63:2f:
                    39:0d:d6:53:c1:44:65:cb:20:b9:de:b3:03:3b:f2:
                    b6:67:01:56:8c:33:98:a4:a5:e8:84:bc:e5:a5:bb:
                    73:bf:2f:e3:fb:7a:37:5e:73:7c:29:23:dd:8e:1c:
                    92:42:a0:77:2c:bd:7a:50:f8:06:86:de:42:18:9d:
                    37:cc:66:ea:4a:9a:6c:8b:12:3d:3e:58:98:54:ab:
                    80:1a:a9:c0:1f:84:7c:c0:f7:14:0f:db:f0:24:43:
                    9a:00:ab:6c:4b:21:71:fe:ed
                Exponent: 65537 (0x10001)
        X509v3 extensions:
            X509v3 Basic Constraints: 
                CA:FALSE
            Netscape Comment: 
                OpenSSL Generated Certificate
            X509v3 Subject Key Identifier: 
                4B:C5:2A:A1:1C:80:C8:53:2D:F3:A0:E2:17:AC:80:23:3F:F1:BE:FE
            X509v3 Authority Key Identifier: 
                DirName:/C=KR/CN=gilgil
                serial:BC:FE:EF:E9:4A:BC:63:F0

    Signature Algorithm: sha256WithRSAEncryption
         a3:02:fc:d3:48:56:b7:a5:98:1b:99:ec:e7:7d:3f:77:e5:1c:
         73:f1:0d:88:f3:fb:95:fd:38:c4:ca:6a:7e:60:a9:bb:64:2a:
         39:e5:81:ae:e0:ca:34:a1:bd:a8:2f:14:3c:28:87:df:ec:7f:
         91:10:f4:e5:0c:32:07:79:12:d3:95:fb:5b:0c:07:c0:19:cd:
         01:05:2b:5c:c4:96:1b:6d:52:09:28:de:9f:53:4c:5c:f2:95:
         dd:6e:84:f1:8c:c9:30:d7:c5:fd:10:22:dd:ec:e6:45:49:91:
         a3:b7:c0:94:03:32:a3:5b:46:43:f9:09:c7:e9:fd:30:6d:6f:
         87:6e
-----BEGIN CERTIFICATE-----
MIICYzCCAcygAwIBAgIBBzANBgkqhkiG9w0BAQsFADAeMQswCQYDVQQGEwJLUjEP
MA0GA1UEAwwGZ2lsZ2lsMCIYDzIwMTQwMzAxMDAwMDAwWhgPMjAyNDAyMjcwMDAw
MDBaMDUxCzAJBgNVBAYTAktSMSYwJAYDVQQDDB1wYWdlYWQyLmdvb2dsZXN5bmRp
Y2F0aW9uLmNvbTCBnzANBgkqhkiG9w0BAQEFAAOBjQAwgYkCgYEA5FgVjU4hsfGt
wQGQXNPDtO5a++TvGtEfDuVTYy85DdZTwURlyyC53rMDO/K2ZwFWjDOYpKXohLzl
pbtzvy/j+3o3XnN8KSPdjhySQqB3LL16UPgGht5CGJ03zGbqSppsixI9PliYVKuA
GqnAH4R8wPcUD9vwJEOaAKtsSyFx/u0CAwEAAaOBlTCBkjAJBgNVHRMEAjAAMCwG
CWCGSAGG+EIBDQQfFh1PcGVuU1NMIEdlbmVyYXRlZCBDZXJ0aWZpY2F0ZTAdBgNV
HQ4EFgQUS8UqoRyAyFMt86DiF6yAIz/xvv4wOAYDVR0jBDEwL6EipCAwHjELMAkG
A1UEBhMCS1IxDzANBgNVBAMMBmdpbGdpbIIJALz+7+lKvGPwMA0GCSqGSIb3DQEB
CwUAA4GBAKMC/NNIVrelmBuZ7Od9P3flHHPxDYjz+5X9OMTKan5gqbtkKjnlga7g
yjShvagvFDwoh9/sf5EQ9OUMMgd5EtOV+1sMB8AZzQEFK1zElhttUgko3p9TTFzy
ld1uhPGMyTDXxf0QIt3s5kVJkaO3wJQDMqNbRkP5Ccfp/TBtb4du
-----END CERTIFICATE-----
