-----BEGIN RSA PRIVATE KEY-----
MIICXAIBAAKBgQCwzhjbt3+EvEmTQQXA6atCl5UT/MO0Jy5/WeDurRCyiQcB6Cbl
uKxmNLXNK1lxgzlRdjPxJ6tcE3NLsJUw6AbO0ynasJsyyzEZdCTzEhD16szej+ol
gTCOvI48LpcBK0Ex6FmsMVOLERQCm58PGLermw+F75xveGCox9x4cTqXZwIDAQAB
AoGAIrcU4m9RNnrR53vo6Uv4OIcS2m3S71iSJKc9JyAMG0IUgidXG9v63caTu8k7
MrKVWo1e/YbQeq/G/6GYaZXlX/r8SMEDIHmDRkFabR/7OAh5LpQM2tU3n/7m2jW6
hApA52eu2V6AyKtlrlhA2peiSrrxh1jeZl+b38bLoaqVjkECQQDmrviHoFwPvi/Y
g3k8Aqz0sP67B2bVk9TFXIAlkpwInDqJX2QAIsb2HaH9V1Vr/eYXT8og4fxc56yH
8Hauk+g5AkEAxDVq7XVbsW1Yw83ASy/JZ7iUr6ekIUIQVhLBwNN/26SJELVY4GBz
AzOeA3BVKLB+WRckuOOvi8p8E8SvwHA8nwJBAJnLe3yIp/gC90klVjVxHzg/rISq
yZ+I4Kj4I6NpHEgNSGV/yF7i0L0TQoVxrUzDSJywIHVN1P9nobo70hRQHdkCQDde
U6Ra39s73jazEzakb5ODdQH0rs5r1CxV8rM1e/lBfyRl6IS48vvOTyLtSjrHQ4Bk
lYpPRjSOmWECug32HkUCQCADsIG6JQe9pyYtHUHA9HT6K7mvPgp1dvk+wsjAZ+ou
J1Nr9qP8kFpK5WsKWQobwCzVegluU89TwMfjmHz09QQ=
-----END RSA PRIVATE KEY-----
Certificate:
    Data:
        Version: 3 (0x2)
        Serial Number: 11 (0xb)
    Signature Algorithm: sha256WithRSAEncryption
        Issuer: C=KR, CN=gilgil
        Validity
            Not Before: Mar  1 00:00:00 2014 GMT
            Not After : Feb 27 00:00:00 2024 GMT
        Subject: C=KR, CN=pagead2.googlesyndication.com
        Subject Public Key Info:
            Public Key Algorithm: rsaEncryption
                Public-Key: (1024 bit)
                Modulus:
                    00:b0:ce:18:db:b7:7f:84:bc:49:93:41:05:c0:e9:
                    ab:42:97:95:13:fc:c3:b4:27:2e:7f:59:e0:ee:ad:
                    10:b2:89:07:01:e8:26:e5:b8:ac:66:34:b5:cd:2b:
                    59:71:83:39:51:76:33:f1:27:ab:5c:13:73:4b:b0:
                    95:30:e8:06:ce:d3:29:da:b0:9b:32:cb:31:19:74:
                    24:f3:12:10:f5:ea:cc:de:8f:ea:25:81:30:8e:bc:
                    8e:3c:2e:97:01:2b:41:31:e8:59:ac:31:53:8b:11:
                    14:02:9b:9f:0f:18:b7:ab:9b:0f:85:ef:9c:6f:78:
                    60:a8:c7:dc:78:71:3a:97:67
                Exponent: 65537 (0x10001)
        X509v3 extensions:
            X509v3 Basic Constraints: 
                CA:FALSE
            Netscape Comment: 
                OpenSSL Generated Certificate
            X509v3 Subject Key Identifier: 
                4A:9D:2F:92:0B:F2:A9:CF:CC:39:90:BD:27:76:48:53:B8:AC:77:F6
            X509v3 Authority Key Identifier: 
                DirName:/C=KR/CN=gilgil
                serial:BC:FE:EF:E9:4A:BC:63:F0

    Signature Algorithm: sha256WithRSAEncryption
         95:6f:bd:ee:8c:a6:7d:6f:b2:90:a5:ab:f5:a7:59:c9:25:01:
         dc:a7:b4:14:c7:63:9e:a9:07:47:46:a8:cf:ba:d1:ec:1e:7a:
         a5:03:64:f4:a5:e3:a7:d3:9e:d8:62:e9:a3:96:a6:22:1f:84:
         89:20:d7:8a:46:a3:72:29:9b:df:bf:65:93:99:12:f3:11:9f:
         b8:26:eb:64:14:5f:40:de:a9:d9:33:74:8c:9e:96:0b:d7:e9:
         4e:aa:f1:96:b8:6b:46:e6:12:60:bd:49:f3:a5:0d:86:10:75:
         56:e9:e6:2c:0a:44:ce:96:4a:83:34:3b:af:9a:aa:0e:8b:6e:
         fd:40
-----BEGIN CERTIFICATE-----
MIICYzCCAcygAwIBAgIBCzANBgkqhkiG9w0BAQsFADAeMQswCQYDVQQGEwJLUjEP
MA0GA1UEAwwGZ2lsZ2lsMCIYDzIwMTQwMzAxMDAwMDAwWhgPMjAyNDAyMjcwMDAw
MDBaMDUxCzAJBgNVBAYTAktSMSYwJAYDVQQDDB1wYWdlYWQyLmdvb2dsZXN5bmRp
Y2F0aW9uLmNvbTCBnzANBgkqhkiG9w0BAQEFAAOBjQAwgYkCgYEAsM4Y27d/hLxJ
k0EFwOmrQpeVE/zDtCcuf1ng7q0QsokHAegm5bisZjS1zStZcYM5UXYz8SerXBNz
S7CVMOgGztMp2rCbMssxGXQk8xIQ9erM3o/qJYEwjryOPC6XAStBMehZrDFTixEU
ApufDxi3q5sPhe+cb3hgqMfceHE6l2cCAwEAAaOBlTCBkjAJBgNVHRMEAjAAMCwG
CWCGSAGG+EIBDQQfFh1PcGVuU1NMIEdlbmVyYXRlZCBDZXJ0aWZpY2F0ZTAdBgNV
HQ4EFgQUSp0vkgvyqc/MOZC9J3ZIU7isd/YwOAYDVR0jBDEwL6EipCAwHjELMAkG
A1UEBhMCS1IxDzANBgNVBAMMBmdpbGdpbIIJALz+7+lKvGPwMA0GCSqGSIb3DQEB
CwUAA4GBAJVvve6Mpn1vspClq/WnWcklAdyntBTHY56pB0dGqM+60eweeqUDZPSl
46fTnthi6aOWpiIfhIkg14pGo3Ipm9+/ZZOZEvMRn7gm62QUX0DeqdkzdIyelgvX
6U6q8Za4a0bmEmC9SfOlDYYQdVbp5iwKRM6WSoM0O6+aqg6Lbv1A
-----END CERTIFICATE-----
