-----BEGIN RSA PRIVATE KEY-----
MIICXAIBAAKBgQDCb96rDEgnrCmfYJuZIB7LcNDKhvavIl4O8OnU7v+oMAfTeAVK
cMKd7eEF5EWOwjFEtH0V2WnTXT+9YBP9IguYp1wr12Z4I5et+SqUv55ECrFEcvyI
d01jn0oK6F8ibkT2iYbtNmSvhd60atiGikmvczZE90LtmINdoZC9/bOLWQIDAQAB
AoGAA2TghivYtpiSwW12Sd39q590hZSFidkXuzsJWeYyIEV2XYKi1QHS497bJrct
X6iUI5bi+Barej0Od8fNkYWenivCpxi920vlXKkoEjZLGhxfhGmYae7T6x27siKo
ZCj8mGz3m0e8A0Tlp2qIw0CiKxF6NuoxGbb2gthvFXapOGECQQDmhGEqMSxfvtMC
sQLaibVBbQXtEQt2CKetVChu0eENXGJLLaL9JswHE+yGD640padHAJtGMkp7rWle
ZUp8Hoq3AkEA1+5s03wALxzCOzvy7qHk1W8IkV8P+Mxa53wuCDQCabDEOsLbYMja
VzNwIZyVyMqWktwQia1NKxteHu8N+AfKbwJAZwp/oGuQqU/UZNyZKPTrd85zGrBG
zkE6Kql21Wqtzdog+ffxZnWkN/m4/Yge19vAdWWZAvzR/Izcj9x5Ohgw6wJBAKif
5dZlsJMaB0hQsY7PWK+gjPVRYlyt4ZOCc0QusW+t/h/RSZZUY8XTQo7NBF+QbXP0
bOnHL0spjR/lGWiHVPsCQDbGMguE8iPgKcfAtkuZJolm2NrqjwZD0/7WO7Tuwkp5
MqZ+vkeIqhBBhRMHPNfxMnEQo5Ak3Z6lF35jHwH2aLk=
-----END RSA PRIVATE KEY-----
Certificate:
    Data:
        Version: 3 (0x2)
        Serial Number: 16 (0x10)
    Signature Algorithm: sha256WithRSAEncryption
        Issuer: C=KR, CN=gilgil
        Validity
            Not Before: Mar  1 00:00:00 2014 GMT
            Not After : Feb 27 00:00:00 2024 GMT
        Subject: C=KR, CN=pixel.tapad.com
        Subject Public Key Info:
            Public Key Algorithm: rsaEncryption
                Public-Key: (1024 bit)
                Modulus:
                    00:c2:6f:de:ab:0c:48:27:ac:29:9f:60:9b:99:20:
                    1e:cb:70:d0:ca:86:f6:af:22:5e:0e:f0:e9:d4:ee:
                    ff:a8:30:07:d3:78:05:4a:70:c2:9d:ed:e1:05:e4:
                    45:8e:c2:31:44:b4:7d:15:d9:69:d3:5d:3f:bd:60:
                    13:fd:22:0b:98:a7:5c:2b:d7:66:78:23:97:ad:f9:
                    2a:94:bf:9e:44:0a:b1:44:72:fc:88:77:4d:63:9f:
                    4a:0a:e8:5f:22:6e:44:f6:89:86:ed:36:64:af:85:
                    de:b4:6a:d8:86:8a:49:af:73:36:44:f7:42:ed:98:
                    83:5d:a1:90:bd:fd:b3:8b:59
                Exponent: 65537 (0x10001)
        X509v3 extensions:
            X509v3 Basic Constraints: 
                CA:FALSE
            Netscape Comment: 
                OpenSSL Generated Certificate
            X509v3 Subject Key Identifier: 
                CC:E9:50:8F:2A:19:5C:17:17:D6:00:6B:12:CC:FD:F2:BF:A3:17:65
            X509v3 Authority Key Identifier: 
                DirName:/C=KR/CN=gilgil
                serial:BC:FE:EF:E9:4A:BC:63:F0

    Signature Algorithm: sha256WithRSAEncryption
         56:5e:88:df:22:b5:87:b7:46:80:83:ea:c4:97:ce:cf:24:d2:
         71:fe:9d:04:0b:fa:f2:fb:12:d8:93:4a:9f:5a:00:fb:dd:61:
         02:c6:7d:ad:c4:e1:54:df:1e:fb:74:72:6d:7e:bf:76:b2:7a:
         00:1a:82:f6:d9:e3:88:88:e1:5f:a1:ff:b3:6c:e7:c7:c1:4d:
         90:d4:82:a0:9f:d6:c0:5f:ef:ab:22:ad:e6:d2:32:d8:73:e3:
         24:dc:50:fa:f4:08:77:c9:ce:44:b1:32:02:7a:58:3f:7b:3a:
         88:84:1d:bb:6b:c7:2e:e4:4a:c8:fa:57:04:4f:c4:e9:58:f2:
         d5:b1
-----BEGIN CERTIFICATE-----
MIICVTCCAb6gAwIBAgIBEDANBgkqhkiG9w0BAQsFADAeMQswCQYDVQQGEwJLUjEP
MA0GA1UEAwwGZ2lsZ2lsMCIYDzIwMTQwMzAxMDAwMDAwWhgPMjAyNDAyMjcwMDAw
MDBaMCcxCzAJBgNVBAYTAktSMRgwFgYDVQQDDA9waXhlbC50YXBhZC5jb20wgZ8w
DQYJKoZIhvcNAQEBBQADgY0AMIGJAoGBAMJv3qsMSCesKZ9gm5kgHstw0MqG9q8i
Xg7w6dTu/6gwB9N4BUpwwp3t4QXkRY7CMUS0fRXZadNdP71gE/0iC5inXCvXZngj
l635KpS/nkQKsURy/Ih3TWOfSgroXyJuRPaJhu02ZK+F3rRq2IaKSa9zNkT3Qu2Y
g12hkL39s4tZAgMBAAGjgZUwgZIwCQYDVR0TBAIwADAsBglghkgBhvhCAQ0EHxYd
T3BlblNTTCBHZW5lcmF0ZWQgQ2VydGlmaWNhdGUwHQYDVR0OBBYEFMzpUI8qGVwX
F9YAaxLM/fK/oxdlMDgGA1UdIwQxMC+hIqQgMB4xCzAJBgNVBAYTAktSMQ8wDQYD
VQQDDAZnaWxnaWyCCQC8/u/pSrxj8DANBgkqhkiG9w0BAQsFAAOBgQBWXojfIrWH
t0aAg+rEl87PJNJx/p0EC/ry+xLYk0qfWgD73WECxn2txOFU3x77dHJtfr92snoA
GoL22eOIiOFfof+zbOfHwU2Q1IKgn9bAX++rIq3m0jLYc+Mk3FD69Ah3yc5EsTIC
elg/ezqIhB27a8cu5ErI+lcET8TpWPLVsQ==
-----END CERTIFICATE-----
