-----BEGIN RSA PRIVATE KEY-----
MIICXwIBAAKBgQDaY86peibj0j2yAwAUAJ7X8UjE2eGudJVT1cW5lrRwI+a5lBF2
n9VRole4RvshjSbjtflaSeTACuEra+dXPyz3AcjUWM8RVs7NmBeDx2AEcp9tCr8C
Y3QdeanTT8izVDBbB3sWOtYRbwSOG1y+8Jsq1p65S4O8Q3avaSt1SQc0KwIDAQAB
AoGBAKW0u3eOzvloahWq/yEuQ1h4pQ1wgTQ9E500BD5IoorAQu4m8oU+y76QXtzd
RunzT0HSruwaS26IEsg+rJ9fuT4gDCEjrHbBLUPxckrgm/FEr2FRcp/gxVGl+X/t
YPIlbqc4AoGSNdGJRV9x7A9h/txqOaYRSHA4vxxwQBde6TVZAkEA72VumeYeI9fo
LOhMU1xuhBdRzqLKj6W7IW+mgLAO3dtTdQJQcvAHTmLQEpxGrxgUF/Qnp9Vod5lt
RdLcBNSjpwJBAOmJZlqu+EREYoeN8K1v2y5O6S+PNwBrLt9RaLFA2gLLTyXmSls9
mEGIqYXJV/DhkemwTrrRsTaFZlfFjiLcS90CQQCQr3QmDX9f2GjZY1hl9XJR4Sov
QhI8uUSdE7bFBiMmER2ilVB79vfjdzMcXFkYD+xtAcJJ3GA0EIWLcsJJJR73AkEA
iP8GIRpVH07yccyNLGDatc6qsjCUNlWp+Gz8Okbt3QfBFV2DrwRyBbeSop3bTb41
Z136wVLzXyVgRQrp9389rQJBAJfsdovTU1ll3bK+2+lZdIruKnP9TxD4gezLYNni
uBFbOXMWaOGOA6a8bX3qKrtFnv25KUi8y6O7HpXVOrVI//E=
-----END RSA PRIVATE KEY-----
Certificate:
    Data:
        Version: 3 (0x2)
        Serial Number: 23 (0x17)
    Signature Algorithm: sha256WithRSAEncryption
        Issuer: C=KR, CN=gilgil
        Validity
            Not Before: Mar  1 00:00:00 2014 GMT
            Not After : Feb 27 00:00:00 2024 GMT
        Subject: C=KR, CN=pixel.everesttech.net
        Subject Public Key Info:
            Public Key Algorithm: rsaEncryption
                Public-Key: (1024 bit)
                Modulus:
                    00:da:63:ce:a9:7a:26:e3:d2:3d:b2:03:00:14:00:
                    9e:d7:f1:48:c4:d9:e1:ae:74:95:53:d5:c5:b9:96:
                    b4:70:23:e6:b9:94:11:76:9f:d5:51:a2:57:b8:46:
                    fb:21:8d:26:e3:b5:f9:5a:49:e4:c0:0a:e1:2b:6b:
                    e7:57:3f:2c:f7:01:c8:d4:58:cf:11:56:ce:cd:98:
                    17:83:c7:60:04:72:9f:6d:0a:bf:02:63:74:1d:79:
                    a9:d3:4f:c8:b3:54:30:5b:07:7b:16:3a:d6:11:6f:
                    04:8e:1b:5c:be:f0:9b:2a:d6:9e:b9:4b:83:bc:43:
                    76:af:69:2b:75:49:07:34:2b
                Exponent: 65537 (0x10001)
        X509v3 extensions:
            X509v3 Basic Constraints: 
                CA:FALSE
            Netscape Comment: 
                OpenSSL Generated Certificate
            X509v3 Subject Key Identifier: 
                B6:AD:EB:A5:C8:C3:4D:92:09:88:D9:15:17:63:24:0B:37:4C:9B:D9
            X509v3 Authority Key Identifier: 
                DirName:/C=KR/CN=gilgil
                serial:BC:FE:EF:E9:4A:BC:63:F0

    Signature Algorithm: sha256WithRSAEncryption
         1c:71:1a:a4:b9:6a:12:17:7c:18:ab:c3:3e:ff:d5:43:e3:53:
         3f:eb:58:90:8c:89:7a:05:36:f5:a6:dd:44:cd:20:a7:77:31:
         88:a4:d5:59:a2:e9:69:fa:0f:57:d6:65:8a:d4:a2:a7:b8:0a:
         2a:33:ee:7f:c9:f3:53:38:54:84:06:a5:63:52:05:f6:ec:f6:
         a6:b1:f6:b6:13:67:8e:c5:bd:b9:00:5c:f2:cd:7a:47:43:dd:
         aa:cc:ca:72:eb:0a:95:82:8d:fc:58:59:51:e0:ef:4e:b7:5c:
         c0:02:29:6c:ac:86:6b:e4:ed:6c:bb:03:b0:ab:61:f3:4a:31:
         67:91
-----BEGIN CERTIFICATE-----
MIICWzCCAcSgAwIBAgIBFzANBgkqhkiG9w0BAQsFADAeMQswCQYDVQQGEwJLUjEP
MA0GA1UEAwwGZ2lsZ2lsMCIYDzIwMTQwMzAxMDAwMDAwWhgPMjAyNDAyMjcwMDAw
MDBaMC0xCzAJBgNVBAYTAktSMR4wHAYDVQQDDBVwaXhlbC5ldmVyZXN0dGVjaC5u
ZXQwgZ8wDQYJKoZIhvcNAQEBBQADgY0AMIGJAoGBANpjzql6JuPSPbIDABQAntfx
SMTZ4a50lVPVxbmWtHAj5rmUEXaf1VGiV7hG+yGNJuO1+VpJ5MAK4Str51c/LPcB
yNRYzxFWzs2YF4PHYARyn20KvwJjdB15qdNPyLNUMFsHexY61hFvBI4bXL7wmyrW
nrlLg7xDdq9pK3VJBzQrAgMBAAGjgZUwgZIwCQYDVR0TBAIwADAsBglghkgBhvhC
AQ0EHxYdT3BlblNTTCBHZW5lcmF0ZWQgQ2VydGlmaWNhdGUwHQYDVR0OBBYEFLat
66XIw02SCYjZFRdjJAs3TJvZMDgGA1UdIwQxMC+hIqQgMB4xCzAJBgNVBAYTAktS
MQ8wDQYDVQQDDAZnaWxnaWyCCQC8/u/pSrxj8DANBgkqhkiG9w0BAQsFAAOBgQAc
cRqkuWoSF3wYq8M+/9VD41M/61iQjIl6BTb1pt1EzSCndzGIpNVZoulp+g9X1mWK
1KKnuAoqM+5/yfNTOFSEBqVjUgX27Pamsfa2E2eOxb25AFzyzXpHQ92qzMpy6wqV
go38WFlR4O9Ot1zAAilsrIZr5O1suwOwq2HzSjFnkQ==
-----END CERTIFICATE-----
