-----BEGIN RSA PRIVATE KEY-----
MIICXAIBAAKBgQDj9rW0tH5IiRMlvYSnNSydTmUfzbUQI0YoqFX+tQBcyeLU8Am+
9rXs5PNLlnhMzDUr3Va6bybeVZC9HCIksyylwJY2AUcF9380nXZK23zQutZGtyol
yuh6J3nGGlmeBUPIcVe0cDd/Bpg8gKv3XaKfXNYUFaL40GnbtquKOhom+QIDAQAB
AoGAKKJ3bUinIgLdGOMZXDzMQRYSTIL8fW3sOZ8YBRj6gY+zEUXgVtvfPeTpwVWH
CBl2eOUxanYZtZQHAs6a/3O4x1TPCyDtuNZT4aPsPchtW0x+F7Cts6EpYK+VtsS+
mlIQIP9gJco9hxDwPEsOX18zZhlKX+LpowYLqOkueVeBz8kCQQD4Um8B2P39GSrc
p9a2ulzQTljszHa5MvLa15NGNwMfpUBFnxAHUkszGuyUwFzs+NIz3WGqCFYn27N/
DfziYTPjAkEA6wMh2qOukVOswRJwAlRc0nBYaEq+TWy7vZHjAfMHObcvFD+FBTOJ
2bp4IKGGPqN2MKGKdvdKFrlk/QfeHkhIcwJACxwFA1wl4NDjbgPEQ2CLDnay28U5
+ocg/lFusVF8vkmyWmsHWIyB+MNXmkAQ6DkpjlB1Mho1YIsfuKtziN04aQJBAKjK
YSBFe3XJYURyV5x0tw41vml5dWDqfZTUGPUndcMQPHIQhRuNPq7wbKMTH/YRNSwM
egSj68SSd2P8qJ2bUN0CQFNwWhdvQS+ZFZJ1TY5Xq/qD8l5oVm6luTBH6Yk9PLYW
NBEdoBFVNGKf222LsRgJ9WzpDUXlPplEoZObyZJmYqY=
-----END RSA PRIVATE KEY-----
Certificate:
    Data:
        Version: 3 (0x2)
        Serial Number: 8 (0x8)
    Signature Algorithm: sha256WithRSAEncryption
        Issuer: C=KR, CN=gilgil
        Validity
            Not Before: Mar  1 00:00:00 2014 GMT
            Not After : Feb 27 00:00:00 2024 GMT
        Subject: C=KR, CN=play.google.com
        Subject Public Key Info:
            Public Key Algorithm: rsaEncryption
                Public-Key: (1024 bit)
                Modulus:
                    00:e3:f6:b5:b4:b4:7e:48:89:13:25:bd:84:a7:35:
                    2c:9d:4e:65:1f:cd:b5:10:23:46:28:a8:55:fe:b5:
                    00:5c:c9:e2:d4:f0:09:be:f6:b5:ec:e4:f3:4b:96:
                    78:4c:cc:35:2b:dd:56:ba:6f:26:de:55:90:bd:1c:
                    22:24:b3:2c:a5:c0:96:36:01:47:05:f7:7f:34:9d:
                    76:4a:db:7c:d0:ba:d6:46:b7:2a:25:ca:e8:7a:27:
                    79:c6:1a:59:9e:05:43:c8:71:57:b4:70:37:7f:06:
                    98:3c:80:ab:f7:5d:a2:9f:5c:d6:14:15:a2:f8:d0:
                    69:db:b6:ab:8a:3a:1a:26:f9
                Exponent: 65537 (0x10001)
        X509v3 extensions:
            X509v3 Basic Constraints: 
                CA:FALSE
            Netscape Comment: 
                OpenSSL Generated Certificate
            X509v3 Subject Key Identifier: 
                CF:1B:FB:D8:05:6A:C4:A3:65:25:B4:12:4A:E0:AF:2F:CA:55:0C:E0
            X509v3 Authority Key Identifier: 
                DirName:/C=KR/CN=gilgil
                serial:BC:FE:EF:E9:4A:BC:63:F0

    Signature Algorithm: sha256WithRSAEncryption
         7d:6c:6b:3f:e2:a8:66:0e:cb:57:e9:3a:7b:1b:4c:53:0e:21:
         15:bc:c6:c6:ac:d4:04:b2:d6:b4:be:c2:36:dc:42:7c:0e:64:
         51:c0:58:5c:5b:70:c0:84:59:fb:b0:01:4a:33:b9:21:80:33:
         c5:1b:83:bc:38:4d:b6:53:12:b4:f4:3e:01:97:05:92:bb:5d:
         83:5c:92:df:38:46:b9:b9:83:4c:8f:b2:fe:de:aa:69:06:bf:
         f3:e4:bf:fa:a3:f0:6f:39:58:d6:ae:9a:4e:0c:29:d8:9f:03:
         a9:98:28:b6:3b:ca:7a:af:9d:06:a7:d8:b4:99:31:3b:57:5e:
         bc:07
-----BEGIN CERTIFICATE-----
MIICVTCCAb6gAwIBAgIBCDANBgkqhkiG9w0BAQsFADAeMQswCQYDVQQGEwJLUjEP
MA0GA1UEAwwGZ2lsZ2lsMCIYDzIwMTQwMzAxMDAwMDAwWhgPMjAyNDAyMjcwMDAw
MDBaMCcxCzAJBgNVBAYTAktSMRgwFgYDVQQDDA9wbGF5Lmdvb2dsZS5jb20wgZ8w
DQYJKoZIhvcNAQEBBQADgY0AMIGJAoGBAOP2tbS0fkiJEyW9hKc1LJ1OZR/NtRAj
RiioVf61AFzJ4tTwCb72tezk80uWeEzMNSvdVrpvJt5VkL0cIiSzLKXAljYBRwX3
fzSddkrbfNC61ka3KiXK6HonecYaWZ4FQ8hxV7RwN38GmDyAq/ddop9c1hQVovjQ
adu2q4o6Gib5AgMBAAGjgZUwgZIwCQYDVR0TBAIwADAsBglghkgBhvhCAQ0EHxYd
T3BlblNTTCBHZW5lcmF0ZWQgQ2VydGlmaWNhdGUwHQYDVR0OBBYEFM8b+9gFasSj
ZSW0Ekrgry/KVQzgMDgGA1UdIwQxMC+hIqQgMB4xCzAJBgNVBAYTAktSMQ8wDQYD
VQQDDAZnaWxnaWyCCQC8/u/pSrxj8DANBgkqhkiG9w0BAQsFAAOBgQB9bGs/4qhm
DstX6Tp7G0xTDiEVvMbGrNQEsta0vsI23EJ8DmRRwFhcW3DAhFn7sAFKM7khgDPF
G4O8OE22UxK09D4BlwWSu12DXJLfOEa5uYNMj7L+3qppBr/z5L/6o/BvOVjWrppO
DCnYnwOpmCi2O8p6r50Gp9i0mTE7V168Bw==
-----END CERTIFICATE-----
