-----BEGIN RSA PRIVATE KEY-----
MIICXQIBAAKBgQC13CQ8giZ9t4/XmVIgX0Hkgv5FuD3uKAf0a6KV6rsoJFt/5KJO
eeIfODyD6Nb+1bytwywKEbKDqP6JJCToRCbcX8whrRNNQurQjKMBSDHvAii2/q6r
retHDNfwgf8xOz+pD5MQH3eGn3nt6XNx3yaJpRKZ0SkpC05vxl9Th0/iowIDAQAB
AoGBAIvon8wZSOmA9d2lK8SR5Eyb5mjW1HZLP8tvnzZ8zp2UUvxyddev9yGTjyLg
V77Xyn9X3qKkeNTHh4MUVnyGKeomlsTzRaJiWkcvkkeCF+OFPWxie1g5/tjvS1KC
dk6q681cv1O76YaYNOCxvBbEqrrYMAEsn5AHKnlsS2PlnqlxAkEA2p9v5X3GkvmB
YZtXLmTlqqd3irNWW+ss1FhRRBnN8f23qwv9AhE+AJKTOfEHyeW5ZwJjYGLH8txH
NGitUml/SQJBANTzr+p+YTiIaAh7CK0zz6ayusJqHqJqrGO/N9Xj9d2t41sXGWT5
nQ4VD9x0xMr848k04VLziOoLrq/n+XTblosCQDozbc+Tj1S7VaVNfIUeWUH4OUvU
eG4aCqIxLNlLYVdF6yp/E4kEXBQ88TLgpukp3hS9PwV+5qoR2GbsYw/og/kCQGWw
JB3m0YgMYxlBnygOKKdii5oQ0KYgKEfNZN1HaP29bmbuBdtY8u1pk1RjkiGYVzGa
hcp1rriMcZNgQ5fQz/cCQQC5XOTPU/LD2gH0Fe0e8RJAhmlsgByYH8M1uFBHAPxh
vZHdcZZ5rbVOlsseChxYsIpgqffixkfKeY6+mYEqcoRP
-----END RSA PRIVATE KEY-----
Certificate:
    Data:
        Version: 3 (0x2)
        Serial Number: 8 (0x8)
    Signature Algorithm: sha256WithRSAEncryption
        Issuer: C=KR, CN=gilgil
        Validity
            Not Before: Mar  1 00:00:00 2014 GMT
            Not After : Feb 27 00:00:00 2024 GMT
        Subject: C=KR, CN=play.google.com
        Subject Public Key Info:
            Public Key Algorithm: rsaEncryption
                Public-Key: (1024 bit)
                Modulus:
                    00:b5:dc:24:3c:82:26:7d:b7:8f:d7:99:52:20:5f:
                    41:e4:82:fe:45:b8:3d:ee:28:07:f4:6b:a2:95:ea:
                    bb:28:24:5b:7f:e4:a2:4e:79:e2:1f:38:3c:83:e8:
                    d6:fe:d5:bc:ad:c3:2c:0a:11:b2:83:a8:fe:89:24:
                    24:e8:44:26:dc:5f:cc:21:ad:13:4d:42:ea:d0:8c:
                    a3:01:48:31:ef:02:28:b6:fe:ae:ab:ad:eb:47:0c:
                    d7:f0:81:ff:31:3b:3f:a9:0f:93:10:1f:77:86:9f:
                    79:ed:e9:73:71:df:26:89:a5:12:99:d1:29:29:0b:
                    4e:6f:c6:5f:53:87:4f:e2:a3
                Exponent: 65537 (0x10001)
        X509v3 extensions:
            X509v3 Basic Constraints: 
                CA:FALSE
            Netscape Comment: 
                OpenSSL Generated Certificate
            X509v3 Subject Key Identifier: 
                FA:C7:13:83:37:F0:A3:4B:84:03:E5:AD:64:63:0A:41:1C:AA:C7:6C
            X509v3 Authority Key Identifier: 
                DirName:/C=KR/CN=gilgil
                serial:BC:FE:EF:E9:4A:BC:63:F0

    Signature Algorithm: sha256WithRSAEncryption
         2c:4a:86:71:92:93:5b:da:70:61:d0:18:1e:b0:6a:58:95:13:
         9f:5b:87:26:6f:45:0b:b2:c4:99:c8:48:65:d5:9b:f6:b8:97:
         e8:0c:b2:55:b7:12:44:6d:6c:80:4b:44:32:01:38:33:a9:da:
         62:8b:53:24:c5:52:a0:4c:7b:0e:13:ca:1b:ab:f5:fe:c6:c1:
         6c:5a:66:7a:7e:0e:fd:a3:2a:4c:f7:c0:3c:45:a7:2f:88:ce:
         48:85:bd:e4:68:8a:0e:65:51:02:0e:db:b5:b3:47:38:02:7b:
         0b:d2:61:c9:65:8c:eb:de:54:b1:b8:e1:b2:a0:13:ad:71:9f:
         36:11
-----BEGIN CERTIFICATE-----
MIICVTCCAb6gAwIBAgIBCDANBgkqhkiG9w0BAQsFADAeMQswCQYDVQQGEwJLUjEP
MA0GA1UEAwwGZ2lsZ2lsMCIYDzIwMTQwMzAxMDAwMDAwWhgPMjAyNDAyMjcwMDAw
MDBaMCcxCzAJBgNVBAYTAktSMRgwFgYDVQQDDA9wbGF5Lmdvb2dsZS5jb20wgZ8w
DQYJKoZIhvcNAQEBBQADgY0AMIGJAoGBALXcJDyCJn23j9eZUiBfQeSC/kW4Pe4o
B/RropXquygkW3/kok554h84PIPo1v7VvK3DLAoRsoOo/okkJOhEJtxfzCGtE01C
6tCMowFIMe8CKLb+rqut60cM1/CB/zE7P6kPkxAfd4afee3pc3HfJomlEpnRKSkL
Tm/GX1OHT+KjAgMBAAGjgZUwgZIwCQYDVR0TBAIwADAsBglghkgBhvhCAQ0EHxYd
T3BlblNTTCBHZW5lcmF0ZWQgQ2VydGlmaWNhdGUwHQYDVR0OBBYEFPrHE4M38KNL
hAPlrWRjCkEcqsdsMDgGA1UdIwQxMC+hIqQgMB4xCzAJBgNVBAYTAktSMQ8wDQYD
VQQDDAZnaWxnaWyCCQC8/u/pSrxj8DANBgkqhkiG9w0BAQsFAAOBgQAsSoZxkpNb
2nBh0BgesGpYlROfW4cmb0ULssSZyEhl1Zv2uJfoDLJVtxJEbWyAS0QyATgzqdpi
i1MkxVKgTHsOE8obq/X+xsFsWmZ6fg79oypM98A8RacviM5Ihb3kaIoOZVECDtu1
s0c4AnsL0mHJZYzr3lSxuOGyoBOtcZ82EQ==
-----END CERTIFICATE-----
