-----BEGIN RSA PRIVATE KEY-----
MIICWwIBAAKBgQCmZXIzNXVM64gPyRIvAE0UxT4HFOdtf90jHEzpHBzQd8C8GPN+
AGoOrBz0bo9tB6DpkmcTK9dq7sN0muTgLSQpCrOf5HLCdqVoTwcRz3ygjW7f1cGF
kZSR8gyZz74lVUrSswINzB77pRrBu//OXyU1iNvN2Lj/VpMO7rCKLJNncwIDAQAB
AoGAFFwnXBK3dqD/NgdBXVTpGZiE3XL2WlSh51DoLEHPWMa+Y4WeDZXZZFA0/sek
bw/W5Z2PVS4xHpl2ewcU6EU9vkFXEGYNQSAsF8iImzlJ4YOwAWSezSA5sy36uZAr
jM6Kkc2he5Nu4te3KfLRipbP/UoaM5mIAAt2tfluGcv72OECQQDSutCl1LxUhnLg
YMR6O+uB1aOX8R/qDx/ArWgqf2W2ig1aF1o86eEKPCPbq7i30C3AB8Ki9o57pGFT
0NCaorwDAkEAyiR9e6raEHW65Svxxx96/S8mEOwltZr7YZzCIz8JXLCbM3XqiRhd
BRzxhKiTKxCU6xlkgq167a38W4CFDVaj0QJAM98QZQGMqjG+LUUkmAIP4pG4Bzqv
ZGn8ou0MawmY++nXh4mgCMZ5Qo+zM+t9OKHh4RcH7h1KzVyVKJCKCMZuCQJAU3B0
i5Oep6SxHN/i0TrhXZkUsW+IsUnj8gru5/WhO616oudNhIGWBAJKf2PGO8SAc/rr
TjWlxG5I+Mw4H6VfwQJAVj9U31326qse41JreOaBs1eyuqLUhR4Q/6340sQ2NWP5
H4zK22t7Yt8oxdRIEfyA7YnKqN2nrWRqtQhvUjV0UA==
-----END RSA PRIVATE KEY-----
Certificate:
    Data:
        Version: 3 (0x2)
        Serial Number: 24 (0x18)
    Signature Algorithm: sha256WithRSAEncryption
        Issuer: C=KR, CN=gilgil
        Validity
            Not Before: Mar  1 00:00:00 2014 GMT
            Not After : Feb 27 00:00:00 2024 GMT
        Subject: C=KR, CN=rp.gwallet.com
        Subject Public Key Info:
            Public Key Algorithm: rsaEncryption
                Public-Key: (1024 bit)
                Modulus:
                    00:a6:65:72:33:35:75:4c:eb:88:0f:c9:12:2f:00:
                    4d:14:c5:3e:07:14:e7:6d:7f:dd:23:1c:4c:e9:1c:
                    1c:d0:77:c0:bc:18:f3:7e:00:6a:0e:ac:1c:f4:6e:
                    8f:6d:07:a0:e9:92:67:13:2b:d7:6a:ee:c3:74:9a:
                    e4:e0:2d:24:29:0a:b3:9f:e4:72:c2:76:a5:68:4f:
                    07:11:cf:7c:a0:8d:6e:df:d5:c1:85:91:94:91:f2:
                    0c:99:cf:be:25:55:4a:d2:b3:02:0d:cc:1e:fb:a5:
                    1a:c1:bb:ff:ce:5f:25:35:88:db:cd:d8:b8:ff:56:
                    93:0e:ee:b0:8a:2c:93:67:73
                Exponent: 65537 (0x10001)
        X509v3 extensions:
            X509v3 Basic Constraints: 
                CA:FALSE
            Netscape Comment: 
                OpenSSL Generated Certificate
            X509v3 Subject Key Identifier: 
                EE:62:B8:3D:24:B9:F0:FF:31:13:33:6B:E2:70:8E:86:A5:2E:83:17
            X509v3 Authority Key Identifier: 
                DirName:/C=KR/CN=gilgil
                serial:BC:FE:EF:E9:4A:BC:63:F0

    Signature Algorithm: sha256WithRSAEncryption
         2d:23:60:12:ce:ee:6e:92:e0:5d:b4:45:7e:17:0a:86:86:0e:
         60:9e:21:da:04:ce:fe:58:e4:56:ab:f8:96:eb:a2:5c:ec:5e:
         36:99:4c:d0:65:26:98:5e:01:f3:a5:ff:86:e3:20:a9:29:54:
         f6:7f:c5:e5:62:83:ca:64:d2:96:64:2e:15:3f:92:54:82:0b:
         1f:85:f5:3e:00:8e:af:d2:98:d9:4b:83:fe:5e:5f:11:b9:e2:
         8f:a9:05:a6:20:38:64:3b:2d:6c:d8:63:6d:f7:72:cc:f5:1a:
         73:d4:46:8f:aa:af:3f:db:87:9d:3c:03:fd:49:6a:a4:01:30:
         a1:2d
-----BEGIN CERTIFICATE-----
MIICVDCCAb2gAwIBAgIBGDANBgkqhkiG9w0BAQsFADAeMQswCQYDVQQGEwJLUjEP
MA0GA1UEAwwGZ2lsZ2lsMCIYDzIwMTQwMzAxMDAwMDAwWhgPMjAyNDAyMjcwMDAw
MDBaMCYxCzAJBgNVBAYTAktSMRcwFQYDVQQDDA5ycC5nd2FsbGV0LmNvbTCBnzAN
BgkqhkiG9w0BAQEFAAOBjQAwgYkCgYEApmVyMzV1TOuID8kSLwBNFMU+BxTnbX/d
IxxM6Rwc0HfAvBjzfgBqDqwc9G6PbQeg6ZJnEyvXau7DdJrk4C0kKQqzn+Rywnal
aE8HEc98oI1u39XBhZGUkfIMmc++JVVK0rMCDcwe+6Uawbv/zl8lNYjbzdi4/1aT
Du6wiiyTZ3MCAwEAAaOBlTCBkjAJBgNVHRMEAjAAMCwGCWCGSAGG+EIBDQQfFh1P
cGVuU1NMIEdlbmVyYXRlZCBDZXJ0aWZpY2F0ZTAdBgNVHQ4EFgQU7mK4PSS58P8x
EzNr4nCOhqUugxcwOAYDVR0jBDEwL6EipCAwHjELMAkGA1UEBhMCS1IxDzANBgNV
BAMMBmdpbGdpbIIJALz+7+lKvGPwMA0GCSqGSIb3DQEBCwUAA4GBAC0jYBLO7m6S
4F20RX4XCoaGDmCeIdoEzv5Y5Far+JbrolzsXjaZTNBlJpheAfOl/4bjIKkpVPZ/
xeVig8pk0pZkLhU/klSCCx+F9T4Ajq/SmNlLg/5eXxG54o+pBaYgOGQ7LWzYY233
csz1GnPURo+qrz/bh508A/1JaqQBMKEt
-----END CERTIFICATE-----
