-----BEGIN RSA PRIVATE KEY-----
MIICXQIBAAKBgQC9mo2KSoYH0Vq88/FlAsqnmRyf9Q/e7wOM2AIjRKJgLst9auha
S0pzz2xRvcwE0L0zzX2/fCb92cxIjs46kVPPF89OnMUzJY0RBU1VqJkEc1HyAs/g
00oyYU15zkQSS/abpDdUYUHZxPL5JN5r94y6VNYO7oo4C2l6Smp2E/qhoQIDAQAB
AoGAauqoPf9gLTBlFoAI84jrdi7k8V5joLbvLZDxQ6oEVnCM1yBd/ezPAxdIYZ/B
WEXNK1UJP91mr2cNxyygJm6k7v0Sjhieyi3bwzjSLe+xUVMLI7lw3oM7eI6Sh7LK
I9eElq4mQkl5VhLQe5xBIH8Kv+D4yHemfYZXSN298yFApzECQQD0ZmQUEGAD7tIY
HgZmzxER/U5DBZEm749CHA6HEHRZM/0TCm5nFG4g6JzyUBQiDkoREvNln0QS7MmM
6/sRTwBrAkEAxppaphlcJV+BiLQgKsSmvFKR7bMJSuqyIDJmnSsz+qBiT0ADp7ED
CighT8F870SlVCIjX5VvoOT9vEFgf7F5IwJAcu/4Xus4jIDzMz5jmlQFXiV3edOT
aPE+uUOCnYhif1UQzrSYKUgVZsqejOKWJVH9CTyVVRRqqk/LlcehAonZ0wJBALCv
IXYjmZamINc9aGCkErH3w1t0rA+6PD3omOG6TcPqa4uVp6rID6w5h2ks+bjjmTIA
LPgcOfMpxZJ1lyQC/4ECQQChE1o3KLlvvSlU4Kgia4pMVhuDTIvsa7l1XWL2c9t/
/wZHwAXfSldj+5NThDDkgDddveIAYQ5SXNmjhfxTDYzY
-----END RSA PRIVATE KEY-----
Certificate:
    Data:
        Version: 3 (0x2)
        Serial Number: 20 (0x14)
    Signature Algorithm: sha256WithRSAEncryption
        Issuer: C=KR, CN=gilgil
        Validity
            Not Before: Mar  1 00:00:00 2014 GMT
            Not After : Feb 27 00:00:00 2024 GMT
        Subject: C=KR, CN=rtd.tubemogul.com
        Subject Public Key Info:
            Public Key Algorithm: rsaEncryption
                Public-Key: (1024 bit)
                Modulus:
                    00:bd:9a:8d:8a:4a:86:07:d1:5a:bc:f3:f1:65:02:
                    ca:a7:99:1c:9f:f5:0f:de:ef:03:8c:d8:02:23:44:
                    a2:60:2e:cb:7d:6a:e8:5a:4b:4a:73:cf:6c:51:bd:
                    cc:04:d0:bd:33:cd:7d:bf:7c:26:fd:d9:cc:48:8e:
                    ce:3a:91:53:cf:17:cf:4e:9c:c5:33:25:8d:11:05:
                    4d:55:a8:99:04:73:51:f2:02:cf:e0:d3:4a:32:61:
                    4d:79:ce:44:12:4b:f6:9b:a4:37:54:61:41:d9:c4:
                    f2:f9:24:de:6b:f7:8c:ba:54:d6:0e:ee:8a:38:0b:
                    69:7a:4a:6a:76:13:fa:a1:a1
                Exponent: 65537 (0x10001)
        X509v3 extensions:
            X509v3 Basic Constraints: 
                CA:FALSE
            Netscape Comment: 
                OpenSSL Generated Certificate
            X509v3 Subject Key Identifier: 
                8B:A3:1E:64:E3:FC:7F:57:63:70:B3:93:C3:71:8A:D4:2E:A1:B7:A9
            X509v3 Authority Key Identifier: 
                DirName:/C=KR/CN=gilgil
                serial:BC:FE:EF:E9:4A:BC:63:F0

    Signature Algorithm: sha256WithRSAEncryption
         80:4f:3d:05:bf:b6:d4:c6:27:99:2c:6c:01:52:e8:4e:38:50:
         97:54:b7:ad:82:81:f5:62:f0:4d:50:85:7c:c2:50:df:f3:3f:
         27:f4:9a:43:36:38:9c:ee:0b:88:19:1e:5d:df:d8:c8:3f:3e:
         88:75:41:04:e5:c0:97:8e:9b:40:60:0e:db:78:25:fa:b0:e7:
         cf:b7:98:9b:8d:21:ce:3e:69:9f:df:1c:c6:98:c9:60:18:29:
         08:bd:f8:b0:74:7d:b1:a1:35:85:ab:90:02:d6:e1:65:f2:74:
         2d:21:76:22:5c:49:24:16:c3:45:36:36:0b:09:f7:79:da:23:
         67:18
-----BEGIN CERTIFICATE-----
MIICVzCCAcCgAwIBAgIBFDANBgkqhkiG9w0BAQsFADAeMQswCQYDVQQGEwJLUjEP
MA0GA1UEAwwGZ2lsZ2lsMCIYDzIwMTQwMzAxMDAwMDAwWhgPMjAyNDAyMjcwMDAw
MDBaMCkxCzAJBgNVBAYTAktSMRowGAYDVQQDDBFydGQudHViZW1vZ3VsLmNvbTCB
nzANBgkqhkiG9w0BAQEFAAOBjQAwgYkCgYEAvZqNikqGB9FavPPxZQLKp5kcn/UP
3u8DjNgCI0SiYC7LfWroWktKc89sUb3MBNC9M819v3wm/dnMSI7OOpFTzxfPTpzF
MyWNEQVNVaiZBHNR8gLP4NNKMmFNec5EEkv2m6Q3VGFB2cTy+STea/eMulTWDu6K
OAtpekpqdhP6oaECAwEAAaOBlTCBkjAJBgNVHRMEAjAAMCwGCWCGSAGG+EIBDQQf
Fh1PcGVuU1NMIEdlbmVyYXRlZCBDZXJ0aWZpY2F0ZTAdBgNVHQ4EFgQUi6MeZOP8
f1djcLOTw3GK1C6ht6kwOAYDVR0jBDEwL6EipCAwHjELMAkGA1UEBhMCS1IxDzAN
BgNVBAMMBmdpbGdpbIIJALz+7+lKvGPwMA0GCSqGSIb3DQEBCwUAA4GBAIBPPQW/
ttTGJ5ksbAFS6E44UJdUt62CgfVi8E1QhXzCUN/zPyf0mkM2OJzuC4gZHl3f2Mg/
Poh1QQTlwJeOm0BgDtt4Jfqw58+3mJuNIc4+aZ/fHMaYyWAYKQi9+LB0fbGhNYWr
kALW4WXydC0hdiJcSSQWw0U2NgsJ93naI2cY
-----END CERTIFICATE-----
