-----BEGIN RSA PRIVATE KEY-----
MIICXQIBAAKBgQDJ9acsxYYKiutxcDM7gJJjlxFbT2noPi0NtbUFI8vEtaY7TaF/
HYbdP6TNftp58XVMhGf3RkFcSJnCz3mwuZUqe3LYRpkNVy2PXUMa/9V94ehHp3+6
pvAxKdTGEgX6Gv/fBx1iLFj7EVh6c4mDR+c7gI9fzZ5PuoigwCqlvM7fBQIDAQAB
AoGAHwT+ImBMUD46H3hORitfULCZV98As00peluYbCutVo9X8u/fiDiuyDjIRU/g
mq49h/0mQtKlo1j7VPKtDDnU8SV7NaQzrNwbeeRscf+IsyfKh5QwXl1hdLcAt6pW
yd9pWr3ygU8WziUAbYWwojDlYolyVzcFwcGX23bWx+mOA4ECQQDyWqQHSxfkGyk4
5JEkSFdU9pieWuA2Da4FFo5bqkHeHI3yeSaqMuGLrv7ZxEtEAbD5+0AItr+CgVgI
vqq3Ly4xAkEA1VTBQhGOTV91WmDrHFWw45Lwh9knM5kP0o+O3etN4CGSGluD8xCN
f2QkNnq0pQunJCJF4fllnHHEWZIpGLMlFQJAbmF8HdpE2l7IiqIHvSe5pvfdkRpA
zj2yyZx5YCSOdXQ57nrhcllUQsOETXjK8wF2MpUNmCpr1SvGBc2ZgW9asQJBAIXX
R+yIkSwP8NOELN25EWKmBMxmPEcOB7RGJw8qGtC8nyp0MiOkRfIfxOx9LarC1dlA
u3FcBBkT82ly3t/FPUUCQQC/oL/I3jBFfrTpP6CREs7x1AGhTOb3yL89XNr17Wwz
MflBcWhOjaqPew5ufFti1eKjid9iibFPcQmh+c1yDNg1
-----END RSA PRIVATE KEY-----
Certificate:
    Data:
        Version: 3 (0x2)
        Serial Number: 2 (0x2)
    Signature Algorithm: sha256WithRSAEncryption
        Issuer: C=KR, CN=gilgil
        Validity
            Not Before: Mar  1 00:00:00 2014 GMT
            Not After : Feb 27 00:00:00 2024 GMT
        Subject: C=KR, CN=s.pstatic.net
        Subject Public Key Info:
            Public Key Algorithm: rsaEncryption
                Public-Key: (1024 bit)
                Modulus:
                    00:c9:f5:a7:2c:c5:86:0a:8a:eb:71:70:33:3b:80:
                    92:63:97:11:5b:4f:69:e8:3e:2d:0d:b5:b5:05:23:
                    cb:c4:b5:a6:3b:4d:a1:7f:1d:86:dd:3f:a4:cd:7e:
                    da:79:f1:75:4c:84:67:f7:46:41:5c:48:99:c2:cf:
                    79:b0:b9:95:2a:7b:72:d8:46:99:0d:57:2d:8f:5d:
                    43:1a:ff:d5:7d:e1:e8:47:a7:7f:ba:a6:f0:31:29:
                    d4:c6:12:05:fa:1a:ff:df:07:1d:62:2c:58:fb:11:
                    58:7a:73:89:83:47:e7:3b:80:8f:5f:cd:9e:4f:ba:
                    88:a0:c0:2a:a5:bc:ce:df:05
                Exponent: 65537 (0x10001)
        X509v3 extensions:
            X509v3 Basic Constraints: 
                CA:FALSE
            Netscape Comment: 
                OpenSSL Generated Certificate
            X509v3 Subject Key Identifier: 
                B0:31:6B:14:69:F2:32:B3:4A:A5:FE:BC:62:45:88:53:B4:6D:F1:E4
            X509v3 Authority Key Identifier: 
                DirName:/C=KR/CN=gilgil
                serial:BC:FE:EF:E9:4A:BC:63:F0

    Signature Algorithm: sha256WithRSAEncryption
         7b:e7:c7:fe:68:42:0d:e8:5f:99:53:33:77:0a:c0:96:fd:f5:
         6b:a6:d2:57:ff:da:b9:bf:b3:c1:47:0c:ea:5b:9b:c2:ef:bc:
         d7:99:24:2d:56:3b:46:7f:81:de:ec:26:20:3e:f4:7e:2b:52:
         74:bb:0e:c3:bb:cb:cb:2c:d2:a7:2c:76:69:a7:b7:7c:2e:9d:
         08:db:35:2a:98:ba:cd:5d:13:dd:13:0c:54:b7:39:6c:28:12:
         11:dc:f3:3e:af:f6:07:ab:0f:40:f2:2b:45:ca:2b:6e:9f:0f:
         d2:30:f7:69:c1:ba:03:02:c8:fa:a2:17:2e:4f:9e:63:fc:16:
         49:44
-----BEGIN CERTIFICATE-----
MIICUzCCAbygAwIBAgIBAjANBgkqhkiG9w0BAQsFADAeMQswCQYDVQQGEwJLUjEP
MA0GA1UEAwwGZ2lsZ2lsMCIYDzIwMTQwMzAxMDAwMDAwWhgPMjAyNDAyMjcwMDAw
MDBaMCUxCzAJBgNVBAYTAktSMRYwFAYDVQQDDA1zLnBzdGF0aWMubmV0MIGfMA0G
CSqGSIb3DQEBAQUAA4GNADCBiQKBgQDJ9acsxYYKiutxcDM7gJJjlxFbT2noPi0N
tbUFI8vEtaY7TaF/HYbdP6TNftp58XVMhGf3RkFcSJnCz3mwuZUqe3LYRpkNVy2P
XUMa/9V94ehHp3+6pvAxKdTGEgX6Gv/fBx1iLFj7EVh6c4mDR+c7gI9fzZ5Puoig
wCqlvM7fBQIDAQABo4GVMIGSMAkGA1UdEwQCMAAwLAYJYIZIAYb4QgENBB8WHU9w
ZW5TU0wgR2VuZXJhdGVkIENlcnRpZmljYXRlMB0GA1UdDgQWBBSwMWsUafIys0ql
/rxiRYhTtG3x5DA4BgNVHSMEMTAvoSKkIDAeMQswCQYDVQQGEwJLUjEPMA0GA1UE
AwwGZ2lsZ2lsggkAvP7v6Uq8Y/AwDQYJKoZIhvcNAQELBQADgYEAe+fH/mhCDehf
mVMzdwrAlv31a6bSV//aub+zwUcM6lubwu+815kkLVY7Rn+B3uwmID70fitSdLsO
w7vLyyzSpyx2aae3fC6dCNs1Kpi6zV0T3RMMVLc5bCgSEdzzPq/2B6sPQPIrRcor
bp8P0jD3acG6AwLI+qIXLk+eY/wWSUQ=
-----END CERTIFICATE-----
