-----BEGIN RSA PRIVATE KEY-----
MIICXQIBAAKBgQD4CvYmOLiKWzxIUO7o8183kLeDHBup1l/tXm8xhC25hdIZJavj
kwa9XvpN0p782wNJwJz5qCQuoZG+m4zJKC5maIKyO2TyT/SpMX8uBctk9REXE2Zn
ztj2tJqwc6ASEj5YSRwfGNLScxybZ/qWIbB4UhDGqf9YyjZ8EOiBVY8qlQIDAQAB
AoGANTqk+C7T610I4rv7iSIxHMuBljFB/oBytY2+bvHeniGJpLvg10WF/L2VGX5J
gBm/6uPay/i5SwiBLlZTMBffXM6JIiU9A6RQk0Mz8QM7pDXZpXOEcSks3UTkZ2N3
TX9MdqCF5pFFfdsjJW9L9D/1vpPdvGA8ua+SYz70bdLyFAECQQD89owMH2HBUFyl
MgvL/u/kV/Kg/zKVlU0nyDWE9diWC+biCDoEtBMIIOdy84BNZ1JGrmQp5zEiSHVT
bMMPzO6lAkEA+wVK6Rkicbt11dqZgOwRJJEJacbw013BsOfO9RiWRUM6HzRiePX9
cMouhlTIJHxu+IVURDl3he0Z8AT516v5MQJBANFVzgtyJNlvAVwLkEueizLxvO2S
gm/a/+B+BBwlvrhc3RIMMMcXpfBCGoa8D17+s82eH3G1yqlOQRlqlfmLY6kCQQDA
gaqVYSU9O5p+ywp2CJSNCn3BlUQTlQ958AyTgqubqpbkX3Q1d9FJsoRDmLl04cjo
5rddKwUyvEbr/6TrdYPBAkBODANGlHzquiRz1EUntYk9vvUKwMAP9KvHQ6+ACVt8
sAjqPGrSKzM2Y8DxtaWXm/8FbwbJVMQDB8pBWuavHA0S
-----END RSA PRIVATE KEY-----
Certificate:
    Data:
        Version: 3 (0x2)
        Serial Number: 1 (0x1)
    Signature Algorithm: sha256WithRSAEncryption
        Issuer: C=KR, CN=gilgil
        Validity
            Not Before: Mar  1 00:00:00 2014 GMT
            Not After : Feb 27 00:00:00 2024 GMT
        Subject: C=KR, CN=safebrowsing.googleapis.com
        Subject Public Key Info:
            Public Key Algorithm: rsaEncryption
                Public-Key: (1024 bit)
                Modulus:
                    00:f8:0a:f6:26:38:b8:8a:5b:3c:48:50:ee:e8:f3:
                    5f:37:90:b7:83:1c:1b:a9:d6:5f:ed:5e:6f:31:84:
                    2d:b9:85:d2:19:25:ab:e3:93:06:bd:5e:fa:4d:d2:
                    9e:fc:db:03:49:c0:9c:f9:a8:24:2e:a1:91:be:9b:
                    8c:c9:28:2e:66:68:82:b2:3b:64:f2:4f:f4:a9:31:
                    7f:2e:05:cb:64:f5:11:17:13:66:67:ce:d8:f6:b4:
                    9a:b0:73:a0:12:12:3e:58:49:1c:1f:18:d2:d2:73:
                    1c:9b:67:fa:96:21:b0:78:52:10:c6:a9:ff:58:ca:
                    36:7c:10:e8:81:55:8f:2a:95
                Exponent: 65537 (0x10001)
        X509v3 extensions:
            X509v3 Basic Constraints: 
                CA:FALSE
            Netscape Comment: 
                OpenSSL Generated Certificate
            X509v3 Subject Key Identifier: 
                09:F2:C7:5B:FA:57:1F:E1:81:98:48:67:C0:E7:0E:FB:2B:61:F4:1D
            X509v3 Authority Key Identifier: 
                DirName:/C=KR/CN=gilgil
                serial:BC:FE:EF:E9:4A:BC:63:F0

    Signature Algorithm: sha256WithRSAEncryption
         a6:67:40:e4:f6:38:fa:50:5f:06:fc:10:6c:7a:5a:14:4f:c2:
         fe:67:22:7a:62:7f:b3:c5:42:c9:28:9b:2a:92:7b:69:d3:7b:
         10:c2:1b:9a:8c:cb:03:7f:3f:2e:3a:85:4b:5d:79:00:18:76:
         d9:02:b3:b8:0d:a4:a8:91:58:d0:e7:d2:82:f0:6b:42:d8:ab:
         d2:2b:be:72:24:eb:fc:09:58:bf:56:93:a5:8f:e1:6c:ff:39:
         eb:45:ba:08:18:39:e6:b1:87:23:a1:ca:4a:23:b0:35:b6:43:
         34:60:ed:0c:6c:2f:d8:90:96:ec:9d:0a:a6:87:87:fc:ac:a8:
         4f:f8
-----BEGIN CERTIFICATE-----
MIICYTCCAcqgAwIBAgIBATANBgkqhkiG9w0BAQsFADAeMQswCQYDVQQGEwJLUjEP
MA0GA1UEAwwGZ2lsZ2lsMCIYDzIwMTQwMzAxMDAwMDAwWhgPMjAyNDAyMjcwMDAw
MDBaMDMxCzAJBgNVBAYTAktSMSQwIgYDVQQDDBtzYWZlYnJvd3NpbmcuZ29vZ2xl
YXBpcy5jb20wgZ8wDQYJKoZIhvcNAQEBBQADgY0AMIGJAoGBAPgK9iY4uIpbPEhQ
7ujzXzeQt4McG6nWX+1ebzGELbmF0hklq+OTBr1e+k3SnvzbA0nAnPmoJC6hkb6b
jMkoLmZogrI7ZPJP9Kkxfy4Fy2T1ERcTZmfO2Pa0mrBzoBISPlhJHB8Y0tJzHJtn
+pYhsHhSEMap/1jKNnwQ6IFVjyqVAgMBAAGjgZUwgZIwCQYDVR0TBAIwADAsBglg
hkgBhvhCAQ0EHxYdT3BlblNTTCBHZW5lcmF0ZWQgQ2VydGlmaWNhdGUwHQYDVR0O
BBYEFAnyx1v6Vx/hgZhIZ8DnDvsrYfQdMDgGA1UdIwQxMC+hIqQgMB4xCzAJBgNV
BAYTAktSMQ8wDQYDVQQDDAZnaWxnaWyCCQC8/u/pSrxj8DANBgkqhkiG9w0BAQsF
AAOBgQCmZ0Dk9jj6UF8G/BBseloUT8L+ZyJ6Yn+zxULJKJsqkntp03sQwhuajMsD
fz8uOoVLXXkAGHbZArO4DaSokVjQ59KC8GtC2KvSK75yJOv8CVi/VpOlj+Fs/znr
RboIGDnmsYcjocpKI7A1tkM0YO0MbC/YkJbsnQqmh4f8rKhP+A==
-----END CERTIFICATE-----
