-----BEGIN RSA PRIVATE KEY-----
MIICXAIBAAKBgQC6Mqi6f1ZhOYNDz2weWrUQPoMLpblitwFlhmlfY1+SOksBM74s
cfG8ifCofj7+Gjc66tcStvlpCo1jRojgehLaCcNqsuaIIi/KucxbozboHDjMj4Sa
QnSObBxbFp87qYNaozlxZAbjryYylxdULrOvi5T37mWuhoNXZmBM0P/8bQIDAQAB
AoGAUYDBSLlahz5UjgcqbXMJFK44UI3fQy2WJ+mZEE8AU5K+qC0NDoll5kB/HlH8
ot+400pekGuVavxafV0vpwroWtdYNEUGDLy9ObFFyGHRMJCauzn/u/mdiGmt8xtm
KKElq5L5yqMXQI7VgEPKYw0Fs+WeCr+Nu58nqNLPOtufGaUCQQDk2P+Jj3OyRTPd
RQYGnDeTb0SxuVTolcs64yT5fCtd6MFchxr5AdjNq8dbCwPDx+OCotKi++V/JFTL
pSCTu0+jAkEA0Eo4Ww1n/lniZdht02svKpV4XjNOVZUIblJ8XBMrgGdp6Ucn8YNI
fZnyNwSkF+wML59kHREto0vFOwWVUdIErwJAb3bmWGk/0Bf24BKLkdKrGyu6CNqd
ab/0QhV63+3D7bS94cSItbpZkCvYKRcfWU/WF74Y3HvW12upxZsDWBGHAwJAUjHX
x2ak8SR7SQF9ZX7YoA9X7qSEdxVWvGJknNkbw5ILo3jm9FGAW8BSaw+zyZTmwiw+
D5Jl1hjifgYYBK/CFQJBAOEAnjAw6IGDNeukc9JFFQ+KparjkZQ+5UdcH4E3d1Gz
iE0/WJK3yxAtfpfl5YTPqSBivahDXkdBpYIxaAHCBOE=
-----END RSA PRIVATE KEY-----
Certificate:
    Data:
        Version: 3 (0x2)
        Serial Number: 5 (0x5)
    Signature Algorithm: sha256WithRSAEncryption
        Issuer: C=KR, CN=gilgil
        Validity
            Not Before: Mar  1 00:00:00 2014 GMT
            Not After : Feb 27 00:00:00 2024 GMT
        Subject: C=KR, CN=settings-win.data.microsoft.com
        Subject Public Key Info:
            Public Key Algorithm: rsaEncryption
                Public-Key: (1024 bit)
                Modulus:
                    00:ba:32:a8:ba:7f:56:61:39:83:43:cf:6c:1e:5a:
                    b5:10:3e:83:0b:a5:b9:62:b7:01:65:86:69:5f:63:
                    5f:92:3a:4b:01:33:be:2c:71:f1:bc:89:f0:a8:7e:
                    3e:fe:1a:37:3a:ea:d7:12:b6:f9:69:0a:8d:63:46:
                    88:e0:7a:12:da:09:c3:6a:b2:e6:88:22:2f:ca:b9:
                    cc:5b:a3:36:e8:1c:38:cc:8f:84:9a:42:74:8e:6c:
                    1c:5b:16:9f:3b:a9:83:5a:a3:39:71:64:06:e3:af:
                    26:32:97:17:54:2e:b3:af:8b:94:f7:ee:65:ae:86:
                    83:57:66:60:4c:d0:ff:fc:6d
                Exponent: 65537 (0x10001)
        X509v3 extensions:
            X509v3 Basic Constraints: 
                CA:FALSE
            Netscape Comment: 
                OpenSSL Generated Certificate
            X509v3 Subject Key Identifier: 
                FD:2C:19:5B:03:97:7E:FC:83:03:3C:58:66:45:02:87:FA:66:9D:AF
            X509v3 Authority Key Identifier: 
                DirName:/C=KR/CN=gilgil
                serial:BC:FE:EF:E9:4A:BC:63:F0

    Signature Algorithm: sha256WithRSAEncryption
         04:df:21:a0:f7:cc:56:7c:8b:f8:c1:3b:92:7e:8d:28:d8:1e:
         cb:88:e8:6b:17:40:50:56:6b:39:3b:63:71:7c:67:7c:4d:f0:
         f4:48:51:7b:e6:e2:3a:3d:5c:d9:a6:a7:e0:ef:38:11:d7:c7:
         25:f6:a5:5d:5c:87:af:2b:92:d5:01:fb:51:95:a4:f9:fb:a3:
         9e:ea:8b:cb:97:b0:64:3b:5a:36:82:51:1f:93:41:ed:18:97:
         4c:a9:d0:73:56:b4:e1:f3:cd:9e:f8:7f:76:47:2d:84:74:91:
         82:27:d4:30:c8:ff:a8:16:7e:f5:4d:ae:83:31:58:49:d5:d5:
         22:14
-----BEGIN CERTIFICATE-----
MIICZTCCAc6gAwIBAgIBBTANBgkqhkiG9w0BAQsFADAeMQswCQYDVQQGEwJLUjEP
MA0GA1UEAwwGZ2lsZ2lsMCIYDzIwMTQwMzAxMDAwMDAwWhgPMjAyNDAyMjcwMDAw
MDBaMDcxCzAJBgNVBAYTAktSMSgwJgYDVQQDDB9zZXR0aW5ncy13aW4uZGF0YS5t
aWNyb3NvZnQuY29tMIGfMA0GCSqGSIb3DQEBAQUAA4GNADCBiQKBgQC6Mqi6f1Zh
OYNDz2weWrUQPoMLpblitwFlhmlfY1+SOksBM74scfG8ifCofj7+Gjc66tcStvlp
Co1jRojgehLaCcNqsuaIIi/KucxbozboHDjMj4SaQnSObBxbFp87qYNaozlxZAbj
ryYylxdULrOvi5T37mWuhoNXZmBM0P/8bQIDAQABo4GVMIGSMAkGA1UdEwQCMAAw
LAYJYIZIAYb4QgENBB8WHU9wZW5TU0wgR2VuZXJhdGVkIENlcnRpZmljYXRlMB0G
A1UdDgQWBBT9LBlbA5d+/IMDPFhmRQKH+madrzA4BgNVHSMEMTAvoSKkIDAeMQsw
CQYDVQQGEwJLUjEPMA0GA1UEAwwGZ2lsZ2lsggkAvP7v6Uq8Y/AwDQYJKoZIhvcN
AQELBQADgYEABN8hoPfMVnyL+ME7kn6NKNgey4joaxdAUFZrOTtjcXxnfE3w9EhR
e+biOj1c2aan4O84EdfHJfalXVyHryuS1QH7UZWk+fujnuqLy5ewZDtaNoJRH5NB
7RiXTKnQc1a04fPNnvh/dkcthHSRgifUMMj/qBZ+9U2ugzFYSdXVIhQ=
-----END CERTIFICATE-----
