-----BEGIN RSA PRIVATE KEY-----
MIICXQIBAAKBgQDdRAtNTlaAU3ghF58w2QdvsEzZNlBExl7OXkI5y24ZAOrzQRhB
FoTCMkysM/MGyYr81+ybEQA7FEtrKGx7762jUZY+NcQWy1d+p7+a0an2dFKSWeLp
kehuSbPXkf/c4LnMYB/f6KL+c5HKHVZ1pnRXZWwBsl3PCLFmD4T4iJ7stQIDAQAB
AoGALW4bI/RBrnd04taGyPDGphf8r1yHfpd8P8L6tgMex+N4WhmzcSm+eGD7fR/t
didLcj6jRfNnqLmyAn56R7geXlhRGe0493fofFCgWo/auttM8Te4RcExfq005C8r
u9asT8m4/ddBe5RzGHqCJwNiDA0VuyBBD0ZUQ5LxT5EI4sECQQDy54dQqlg6ZTWa
C3rdF54WuW7NPmFA4hzIl25QcanMK5T9+8ntKxELFPraf/yTOLtU6IZdtwf95BPU
0EBHaxunAkEA6THeMcETLDDpTHkpsTLdRgLU7PTxJ30JYuhVFqL+X5ZP7Me1e6Iv
WZjfcJmQaJjEQwKQhldWlATWgYnAbcnQQwJAZt3aFjUti/1Uh9oYvAzGbEU3QUAL
m5imK+TFWNfp2ocSX8UDrKayXwkRevr8kbRS0RBv5rwebEzsgRF4R0Z6vQJBAOa9
WD1k7SKp1v67WNykFrxiqus4RrIrD7GVcDQw3YAZjEYfKd0GktGV6WlSGcjVeEVR
8U1seBeIXfPZKNW5fl8CQQC7g2zNswKpsSUCT1xXLy4jDzPynyhI4RLi1I5mEsrc
WWSHD1UWGoGX9dNHCDDqETQa55RunCyje4kf7Kr8RSuJ
-----END RSA PRIVATE KEY-----
Certificate:
    Data:
        Version: 3 (0x2)
        Serial Number: 2 (0x2)
    Signature Algorithm: sha256WithRSAEncryption
        Issuer: C=KR, CN=gilgil
        Validity
            Not Before: Mar  1 00:00:00 2014 GMT
            Not After : Feb 27 00:00:00 2024 GMT
        Subject: C=KR, CN=shop-redapi.daum.net
        Subject Public Key Info:
            Public Key Algorithm: rsaEncryption
                Public-Key: (1024 bit)
                Modulus:
                    00:dd:44:0b:4d:4e:56:80:53:78:21:17:9f:30:d9:
                    07:6f:b0:4c:d9:36:50:44:c6:5e:ce:5e:42:39:cb:
                    6e:19:00:ea:f3:41:18:41:16:84:c2:32:4c:ac:33:
                    f3:06:c9:8a:fc:d7:ec:9b:11:00:3b:14:4b:6b:28:
                    6c:7b:ef:ad:a3:51:96:3e:35:c4:16:cb:57:7e:a7:
                    bf:9a:d1:a9:f6:74:52:92:59:e2:e9:91:e8:6e:49:
                    b3:d7:91:ff:dc:e0:b9:cc:60:1f:df:e8:a2:fe:73:
                    91:ca:1d:56:75:a6:74:57:65:6c:01:b2:5d:cf:08:
                    b1:66:0f:84:f8:88:9e:ec:b5
                Exponent: 65537 (0x10001)
        X509v3 extensions:
            X509v3 Basic Constraints: 
                CA:FALSE
            Netscape Comment: 
                OpenSSL Generated Certificate
            X509v3 Subject Key Identifier: 
                0D:34:99:21:B2:35:93:E0:29:EB:8B:32:95:64:33:3C:2E:CE:EB:1D
            X509v3 Authority Key Identifier: 
                DirName:/C=KR/CN=gilgil
                serial:BC:FE:EF:E9:4A:BC:63:F0

    Signature Algorithm: sha256WithRSAEncryption
         22:80:44:59:8e:a3:05:d1:21:97:64:88:c0:fc:f2:c6:3f:c4:
         81:9a:17:1a:a7:a8:77:b4:5f:a7:5b:ee:79:d4:33:25:ce:e9:
         c8:9b:73:d2:1f:a8:a0:ca:58:34:9f:58:10:c8:24:db:51:e4:
         c4:64:fc:ce:f1:76:e8:e8:21:a2:6c:20:dc:a0:a5:1d:d3:2b:
         af:de:59:b8:06:e6:28:64:d9:9d:81:0d:09:57:4c:5e:fe:82:
         75:fd:4f:2b:ff:d6:a1:f4:d1:6e:73:4e:f5:f3:14:a2:53:05:
         68:aa:b8:27:81:0f:4a:98:51:fe:51:54:57:fd:13:c6:e6:11:
         3d:a4
-----BEGIN CERTIFICATE-----
MIICWjCCAcOgAwIBAgIBAjANBgkqhkiG9w0BAQsFADAeMQswCQYDVQQGEwJLUjEP
MA0GA1UEAwwGZ2lsZ2lsMCIYDzIwMTQwMzAxMDAwMDAwWhgPMjAyNDAyMjcwMDAw
MDBaMCwxCzAJBgNVBAYTAktSMR0wGwYDVQQDDBRzaG9wLXJlZGFwaS5kYXVtLm5l
dDCBnzANBgkqhkiG9w0BAQEFAAOBjQAwgYkCgYEA3UQLTU5WgFN4IRefMNkHb7BM
2TZQRMZezl5COctuGQDq80EYQRaEwjJMrDPzBsmK/NfsmxEAOxRLayhse++to1GW
PjXEFstXfqe/mtGp9nRSklni6ZHobkmz15H/3OC5zGAf3+ii/nORyh1WdaZ0V2Vs
AbJdzwixZg+E+Iie7LUCAwEAAaOBlTCBkjAJBgNVHRMEAjAAMCwGCWCGSAGG+EIB
DQQfFh1PcGVuU1NMIEdlbmVyYXRlZCBDZXJ0aWZpY2F0ZTAdBgNVHQ4EFgQUDTSZ
IbI1k+Ap64sylWQzPC7O6x0wOAYDVR0jBDEwL6EipCAwHjELMAkGA1UEBhMCS1Ix
DzANBgNVBAMMBmdpbGdpbIIJALz+7+lKvGPwMA0GCSqGSIb3DQEBCwUAA4GBACKA
RFmOowXRIZdkiMD88sY/xIGaFxqnqHe0X6db7nnUMyXO6cibc9IfqKDKWDSfWBDI
JNtR5MRk/M7xdujoIaJsINygpR3TK6/eWbgG5ihk2Z2BDQlXTF7+gnX9Tyv/1qH0
0W5zTvXzFKJTBWiquCeBD0qYUf5RVFf9E8bmET2k
-----END CERTIFICATE-----
