-----BEGIN RSA PRIVATE KEY-----
MIICXQIBAAKBgQDdJlMMMG5TIMxMTyc18S+jvvnkh4wQ5WHULupcHu9rVcRbCbiC
JqwUrqsABFHFT+oY4oREpchPQ5iaFVOvU7Cp2kFNJ6Iav2Of7C7yLL32emMrtpgY
SS8dPvObxONf9ZCc1IYrLDvJWRxiN/Y6s7kvOwseQrSsskneF3hIrQ6kSQIDAQAB
AoGAIVzpxHn9+t6E07JRSQsE0+A41Og6EkZ4tskJJDKqjffXcqCJzGDHLyuWsp70
Mx82QuDRcYXNLWAWQpCbGmU2znFJsxxE07DyXn2cIf+iM/LeJz54ynjloVg0+v/9
heZH5fDZ2k1iCglWyhYHgewFYV2BNFy6YzH5Z90TRpCuvP0CQQDwxCjo4o0gy7IO
KkVDzeUiLZwL+OymaIl2ndVg7k7B++iYX1jAPcVnXJr4xJeCzpNgQaxT+gm3q218
fikvf9aDAkEA6yRsW1XVtdfsn/1HwO2ySoJoUciMWky4c1+BVe+UsGoNn2c9Hnyl
KuyqQHkgzue5h8/ykZLx/mjYrl3yv8iAQwJATgbUVzzsjb9V0f9i+Sll46CyXLLs
RrXELtvRxhsVDQrNg2wLACpEqk25r3tOusalvmEqLwDuW0bEMb9VK56bbwJBAL2X
7q5uNRSb9zTA2dwbS8h8AXT/yPr+JTMRbI1H0ZG00SsX6NXuFpbXoCbAA84QVS3G
Y4UxAGHrU9qz8YjlN1UCQQCEdWMtaeQbTHjECB/3nCP14EwaUH0Spo8gcWsXhu7P
NpYWx5i3sm2b44sMeyl62Cch9voGWo/iFk8L7LCmQTKk
-----END RSA PRIVATE KEY-----
Certificate:
    Data:
        Version: 3 (0x2)
        Serial Number: 5 (0x5)
    Signature Algorithm: sha256WithRSAEncryption
        Issuer: C=KR, CN=gilgil
        Validity
            Not Before: Mar  1 00:00:00 2014 GMT
            Not After : Feb 27 00:00:00 2024 GMT
        Subject: C=KR, CN=spsprodch1su1dedicatedsb5.servicebus.windows.net
        Subject Public Key Info:
            Public Key Algorithm: rsaEncryption
                Public-Key: (1024 bit)
                Modulus:
                    00:dd:26:53:0c:30:6e:53:20:cc:4c:4f:27:35:f1:
                    2f:a3:be:f9:e4:87:8c:10:e5:61:d4:2e:ea:5c:1e:
                    ef:6b:55:c4:5b:09:b8:82:26:ac:14:ae:ab:00:04:
                    51:c5:4f:ea:18:e2:84:44:a5:c8:4f:43:98:9a:15:
                    53:af:53:b0:a9:da:41:4d:27:a2:1a:bf:63:9f:ec:
                    2e:f2:2c:bd:f6:7a:63:2b:b6:98:18:49:2f:1d:3e:
                    f3:9b:c4:e3:5f:f5:90:9c:d4:86:2b:2c:3b:c9:59:
                    1c:62:37:f6:3a:b3:b9:2f:3b:0b:1e:42:b4:ac:b2:
                    49:de:17:78:48:ad:0e:a4:49
                Exponent: 65537 (0x10001)
        X509v3 extensions:
            X509v3 Basic Constraints: 
                CA:FALSE
            Netscape Comment: 
                OpenSSL Generated Certificate
            X509v3 Subject Key Identifier: 
                1B:47:CC:35:A7:32:63:23:DF:06:60:E4:49:EB:E8:67:6F:3A:AC:2B
            X509v3 Authority Key Identifier: 
                DirName:/C=KR/CN=gilgil
                serial:BC:FE:EF:E9:4A:BC:63:F0

    Signature Algorithm: sha256WithRSAEncryption
         85:04:25:4d:3f:25:85:65:50:2c:57:0a:d0:72:0d:eb:9a:53:
         fd:0f:e3:67:4c:9b:e5:3b:45:d9:d1:e8:64:7f:d9:24:93:be:
         a0:fe:2d:d9:24:11:4f:41:21:63:9e:48:1f:f1:e0:1f:f0:b6:
         f6:4e:6b:ee:4b:27:26:cc:4c:75:7e:60:73:8c:85:88:b3:b9:
         9c:a8:d9:00:66:75:b4:a2:86:09:6d:0c:90:ed:b2:11:3f:3b:
         ce:53:25:ac:47:26:23:b4:70:db:1d:16:94:55:e5:14:39:5d:
         94:0a:02:d4:22:db:4c:5b:8d:c8:7a:54:86:eb:a9:89:f4:b5:
         1f:00
-----BEGIN CERTIFICATE-----
MIICdjCCAd+gAwIBAgIBBTANBgkqhkiG9w0BAQsFADAeMQswCQYDVQQGEwJLUjEP
MA0GA1UEAwwGZ2lsZ2lsMCIYDzIwMTQwMzAxMDAwMDAwWhgPMjAyNDAyMjcwMDAw
MDBaMEgxCzAJBgNVBAYTAktSMTkwNwYDVQQDDDBzcHNwcm9kY2gxc3UxZGVkaWNh
dGVkc2I1LnNlcnZpY2VidXMud2luZG93cy5uZXQwgZ8wDQYJKoZIhvcNAQEBBQAD
gY0AMIGJAoGBAN0mUwwwblMgzExPJzXxL6O++eSHjBDlYdQu6lwe72tVxFsJuIIm
rBSuqwAEUcVP6hjihESlyE9DmJoVU69TsKnaQU0nohq/Y5/sLvIsvfZ6Yyu2mBhJ
Lx0+85vE41/1kJzUhissO8lZHGI39jqzuS87Cx5CtKyySd4XeEitDqRJAgMBAAGj
gZUwgZIwCQYDVR0TBAIwADAsBglghkgBhvhCAQ0EHxYdT3BlblNTTCBHZW5lcmF0
ZWQgQ2VydGlmaWNhdGUwHQYDVR0OBBYEFBtHzDWnMmMj3wZg5Enr6GdvOqwrMDgG
A1UdIwQxMC+hIqQgMB4xCzAJBgNVBAYTAktSMQ8wDQYDVQQDDAZnaWxnaWyCCQC8
/u/pSrxj8DANBgkqhkiG9w0BAQsFAAOBgQCFBCVNPyWFZVAsVwrQcg3rmlP9D+Nn
TJvlO0XZ0ehkf9kkk76g/i3ZJBFPQSFjnkgf8eAf8Lb2TmvuSycmzEx1fmBzjIWI
s7mcqNkAZnW0ooYJbQyQ7bIRPzvOUyWsRyYjtHDbHRaUVeUUOV2UCgLUIttMW43I
elSG66mJ9LUfAA==
-----END CERTIFICATE-----
