-----BEGIN RSA PRIVATE KEY-----
MIICXAIBAAKBgQCxn4uvGRLPZ/FhDhFNL25Vrrj07HBhoVFOgt7bKDBU+wrU+Rpc
A8YTbxK1d0OIpJj+ysYNxp4Nhvdsctry+L6Xc5ny4ZjIzMfohEfVCLLMsOzIugBk
J68TdqM9/6kxl8LiYYKPc+piNdd0wChuf0UZGeobthu8FsYLBk47LolNWwIDAQAB
AoGAdBg2wUxfGgbzIp+COXO95uzbYOJFFdrNfMZXCOE8rd6jls32J5wj08HudYMt
Ndt3UFmSl6Bw36COiWiMqPBiCR2DSlwDCl5kxsCq9WnnciGmn22PFac/ka6Hf4y8
FESnzdsH/fGlgvUGNIGAK3rYwXDl4FhO/s8aCDnq+vAobqECQQDqGHZ1O6TtqBcw
zxTp+EXSMv+GK9nZ0vi6ehcjAmXb7Fj2SPVSwWretPIhN/5P+ZCnBnRjMM8gAu63
WAxZ1oSxAkEAwj5Xeao6SuJfi1dLQga1Q6/XONjs+Q2T4eggvBUPj82nHFZQHRx7
2jPmAShcFgBdp1kwwCcVZllO23jYpmilywJABP1ygPs9f8dmfyba5kXhjyKBKeYD
Zc5GeQsjNR7W9wIpv0481H/E/GxVAPpFlITYXYcYsgiXUbJeTlA1KzEUcQJAPPL6
175GVED74ekeQDWCox6F1dybXvqXsIb53optO544FXgv4zKQ2kL2pN5ZJr4upNgj
p+ebm2XijJM6x9yGSQJBAKtz1MPdqr/g2i+K+1rcaWwa1kS0SkPVxqAnqHQ3gzDG
nK5j0l8YWNHGlms/3TGDHdNhm3JkxB3+7tMCSPGNwyI=
-----END RSA PRIVATE KEY-----
Certificate:
    Data:
        Version: 3 (0x2)
        Serial Number: 12 (0xc)
    Signature Algorithm: sha256WithRSAEncryption
        Issuer: C=KR, CN=gilgil
        Validity
            Not Before: Mar  1 00:00:00 2014 GMT
            Not After : Feb 27 00:00:00 2024 GMT
        Subject: C=KR, CN=ssl.gstatic.com
        Subject Public Key Info:
            Public Key Algorithm: rsaEncryption
                Public-Key: (1024 bit)
                Modulus:
                    00:b1:9f:8b:af:19:12:cf:67:f1:61:0e:11:4d:2f:
                    6e:55:ae:b8:f4:ec:70:61:a1:51:4e:82:de:db:28:
                    30:54:fb:0a:d4:f9:1a:5c:03:c6:13:6f:12:b5:77:
                    43:88:a4:98:fe:ca:c6:0d:c6:9e:0d:86:f7:6c:72:
                    da:f2:f8:be:97:73:99:f2:e1:98:c8:cc:c7:e8:84:
                    47:d5:08:b2:cc:b0:ec:c8:ba:00:64:27:af:13:76:
                    a3:3d:ff:a9:31:97:c2:e2:61:82:8f:73:ea:62:35:
                    d7:74:c0:28:6e:7f:45:19:19:ea:1b:b6:1b:bc:16:
                    c6:0b:06:4e:3b:2e:89:4d:5b
                Exponent: 65537 (0x10001)
        X509v3 extensions:
            X509v3 Basic Constraints: 
                CA:FALSE
            Netscape Comment: 
                OpenSSL Generated Certificate
            X509v3 Subject Key Identifier: 
                B1:3E:74:B2:BA:AC:19:96:18:4F:26:BE:9D:DA:3D:B1:94:F6:C4:CF
            X509v3 Authority Key Identifier: 
                DirName:/C=KR/CN=gilgil
                serial:BC:FE:EF:E9:4A:BC:63:F0

    Signature Algorithm: sha256WithRSAEncryption
         44:4f:62:3a:22:2f:49:33:c6:be:d1:e9:0b:40:74:93:0d:99:
         6d:f0:a3:44:ab:1e:db:b9:99:45:3b:20:87:94:b1:03:4a:aa:
         16:9e:ef:b3:26:bf:db:a7:64:c6:d9:73:b6:5a:0a:3c:1b:e3:
         21:e0:8e:09:80:43:f0:ee:73:71:f0:10:8e:2b:10:e8:80:22:
         7e:58:ad:25:9c:93:45:5c:84:db:4a:90:7d:43:84:6b:fb:17:
         cc:5c:5e:ed:2a:6b:31:d3:6e:f6:57:3d:24:e9:8a:5a:91:16:
         52:c9:e7:a1:38:56:26:d1:92:8e:89:27:c6:ce:6f:2f:2a:cd:
         ac:41
-----BEGIN CERTIFICATE-----
MIICVTCCAb6gAwIBAgIBDDANBgkqhkiG9w0BAQsFADAeMQswCQYDVQQGEwJLUjEP
MA0GA1UEAwwGZ2lsZ2lsMCIYDzIwMTQwMzAxMDAwMDAwWhgPMjAyNDAyMjcwMDAw
MDBaMCcxCzAJBgNVBAYTAktSMRgwFgYDVQQDDA9zc2wuZ3N0YXRpYy5jb20wgZ8w
DQYJKoZIhvcNAQEBBQADgY0AMIGJAoGBALGfi68ZEs9n8WEOEU0vblWuuPTscGGh
UU6C3tsoMFT7CtT5GlwDxhNvErV3Q4ikmP7Kxg3Gng2G92xy2vL4vpdzmfLhmMjM
x+iER9UIssyw7Mi6AGQnrxN2oz3/qTGXwuJhgo9z6mI113TAKG5/RRkZ6hu2G7wW
xgsGTjsuiU1bAgMBAAGjgZUwgZIwCQYDVR0TBAIwADAsBglghkgBhvhCAQ0EHxYd
T3BlblNTTCBHZW5lcmF0ZWQgQ2VydGlmaWNhdGUwHQYDVR0OBBYEFLE+dLK6rBmW
GE8mvp3aPbGU9sTPMDgGA1UdIwQxMC+hIqQgMB4xCzAJBgNVBAYTAktSMQ8wDQYD
VQQDDAZnaWxnaWyCCQC8/u/pSrxj8DANBgkqhkiG9w0BAQsFAAOBgQBET2I6Ii9J
M8a+0ekLQHSTDZlt8KNEqx7buZlFOyCHlLEDSqoWnu+zJr/bp2TG2XO2Wgo8G+Mh
4I4JgEPw7nNx8BCOKxDogCJ+WK0lnJNFXITbSpB9Q4Rr+xfMXF7tKmsx0272Vz0k
6YpakRZSyeehOFYm0ZKOiSfGzm8vKs2sQQ==
-----END CERTIFICATE-----
