-----BEGIN RSA PRIVATE KEY-----
MIICXQIBAAKBgQDAfmKBPegCJiTZCFuwUF9s3JutLU8Xo17zjG4MUZBB7/1PhNWj
Okend+l+Hfa24QazU5spcdad9qfTbsjOX5XlgJhZx7SK8uzhXt3sL9+mgeyRJiUE
0LL5A9Cu4CxoP9s+2WZCkcNrYUAJ6QmUH2mbiRiFTJPE2Tf772pGHvttfwIDAQAB
AoGBAJIoJGEfgScIkVfdOckg7aO5ydZvHavEFxdznCdsUs1ODJcxNAlw+fEVYkup
MqffKnhE1f5c+mkMXJd0ebIA7812TMFrJy8BgNYxRjuik5eFWMzlSrKXegJGMvHv
lLu1pGBOs1li9dmbpz6nMXnS6AKpXfN3jvcPe+YtG3A06mzJAkEA5c0UmHuQQqEg
Ix3dNvT5Z/FvVtl9g9cLHw1pgiX2Z5IfEH9eKHU/CDmJVraL4FzQ2c7NP0v6KQsL
ZDJ0ceiahQJBANZwdZnGNS8sMb66tWVL8HcPd6bkOcko3N58OTU5ocPKBauhhvqV
DsDj6zDj6LFKpwvTYkillGErlp3IHjnLoTMCQEupbGCQPn1Ro80sJgvUONH6clg8
H9Fq2mSM+/I4IZsUR1odNZlIkUpZ91gvnnpu1O0B5B41G9arpkKFQkXG+ikCQQDA
FNxCchkRuDSW9AeoRO2QuHolNCnO1puBbySPWKBeEIgjxPxzWTFt9rqlgIDezk/z
d9WB3U+b+r9fdfIdMxmhAkBOmmLNslRkAR3yxJ9R7WNVPVhaW9D5nt1WKabL+b2j
Ga+xro89krNsVsbu1XlaMZsWYSOlFE9+3Tl9CE5bCLbG
-----END RSA PRIVATE KEY-----
Certificate:
    Data:
        Version: 3 (0x2)
        Serial Number: 3 (0x3)
    Signature Algorithm: sha256WithRSAEncryption
        Issuer: C=KR, CN=gilgil
        Validity
            Not Before: Mar  1 00:00:00 2014 GMT
            Not After : Feb 27 00:00:00 2024 GMT
        Subject: C=KR, CN=ssl.pstatic.net
        Subject Public Key Info:
            Public Key Algorithm: rsaEncryption
                Public-Key: (1024 bit)
                Modulus:
                    00:c0:7e:62:81:3d:e8:02:26:24:d9:08:5b:b0:50:
                    5f:6c:dc:9b:ad:2d:4f:17:a3:5e:f3:8c:6e:0c:51:
                    90:41:ef:fd:4f:84:d5:a3:3a:47:a7:77:e9:7e:1d:
                    f6:b6:e1:06:b3:53:9b:29:71:d6:9d:f6:a7:d3:6e:
                    c8:ce:5f:95:e5:80:98:59:c7:b4:8a:f2:ec:e1:5e:
                    dd:ec:2f:df:a6:81:ec:91:26:25:04:d0:b2:f9:03:
                    d0:ae:e0:2c:68:3f:db:3e:d9:66:42:91:c3:6b:61:
                    40:09:e9:09:94:1f:69:9b:89:18:85:4c:93:c4:d9:
                    37:fb:ef:6a:46:1e:fb:6d:7f
                Exponent: 65537 (0x10001)
        X509v3 extensions:
            X509v3 Basic Constraints: 
                CA:FALSE
            Netscape Comment: 
                OpenSSL Generated Certificate
            X509v3 Subject Key Identifier: 
                9D:6C:C8:38:6F:FC:DB:D2:15:56:30:65:26:1D:5B:C0:53:F0:78:41
            X509v3 Authority Key Identifier: 
                DirName:/C=KR/CN=gilgil
                serial:BC:FE:EF:E9:4A:BC:63:F0

    Signature Algorithm: sha256WithRSAEncryption
         10:ab:58:9a:1e:04:32:05:5c:0b:e3:94:29:d6:dd:8e:07:37:
         f7:e7:53:67:43:ec:b3:62:ad:61:bd:c6:c5:25:46:c0:81:2e:
         4c:86:c6:da:5d:fc:49:42:94:dc:38:68:91:32:e8:ce:72:b2:
         c6:88:f8:db:74:65:bf:20:53:dc:07:58:a5:4d:9c:c1:41:d0:
         81:2a:ce:e0:c1:8f:6d:fc:cf:dd:c0:d8:c6:48:c2:e9:65:71:
         5d:ea:c3:00:24:63:1f:f3:01:94:7a:37:80:32:a5:f2:51:30:
         f1:8d:f8:3f:3c:c1:09:92:a6:2b:b0:a6:23:b5:14:90:4b:d0:
         8d:24
-----BEGIN CERTIFICATE-----
MIICVTCCAb6gAwIBAgIBAzANBgkqhkiG9w0BAQsFADAeMQswCQYDVQQGEwJLUjEP
MA0GA1UEAwwGZ2lsZ2lsMCIYDzIwMTQwMzAxMDAwMDAwWhgPMjAyNDAyMjcwMDAw
MDBaMCcxCzAJBgNVBAYTAktSMRgwFgYDVQQDDA9zc2wucHN0YXRpYy5uZXQwgZ8w
DQYJKoZIhvcNAQEBBQADgY0AMIGJAoGBAMB+YoE96AImJNkIW7BQX2zcm60tTxej
XvOMbgxRkEHv/U+E1aM6R6d36X4d9rbhBrNTmylx1p32p9NuyM5fleWAmFnHtIry
7OFe3ewv36aB7JEmJQTQsvkD0K7gLGg/2z7ZZkKRw2thQAnpCZQfaZuJGIVMk8TZ
N/vvakYe+21/AgMBAAGjgZUwgZIwCQYDVR0TBAIwADAsBglghkgBhvhCAQ0EHxYd
T3BlblNTTCBHZW5lcmF0ZWQgQ2VydGlmaWNhdGUwHQYDVR0OBBYEFJ1syDhv/NvS
FVYwZSYdW8BT8HhBMDgGA1UdIwQxMC+hIqQgMB4xCzAJBgNVBAYTAktSMQ8wDQYD
VQQDDAZnaWxnaWyCCQC8/u/pSrxj8DANBgkqhkiG9w0BAQsFAAOBgQAQq1iaHgQy
BVwL45Qp1t2OBzf351NnQ+yzYq1hvcbFJUbAgS5MhsbaXfxJQpTcOGiRMujOcrLG
iPjbdGW/IFPcB1ilTZzBQdCBKs7gwY9t/M/dwNjGSMLpZXFd6sMAJGMf8wGUejeA
MqXyUTDxjfg/PMEJkqYrsKYjtRSQS9CNJA==
-----END CERTIFICATE-----
