-----BEGIN RSA PRIVATE KEY-----
MIICXAIBAAKBgQCv3ul01p1xiwG4YocGmVpNjjfmmV6+W9x3cNM/K8qdoaPRM1Gn
VoIHrkD9qHZ0h0uBXuUfx6/M95kRTnhNqKV/UREmsjwYeOTPpCKUPzq+eQ2l4AqW
ezRnQ+EzXB0g9lnMpKCQ0j7opPFxf4u4Uj4WVeduyFORN3QxSoGcIzB8MQIDAQAB
AoGAM7Yxot8v8CDVYqfl1/TjboZwvWc/Sm2sR5pvItX3f531kx+p1LBFD4kXJv6P
xfe6JdIHQO7wLC5pXYNbMEp0Tpxe8WeIVb4QokI5X/BxUxfSXj78GW8gJ+6xtW4t
8EZWqQKI3f+Cc6XyA3s2y+beNsij1l6RLGtCUIFqKAR2EAECQQDdCiQIU1jqQs77
g2F9IwhOlYaHYozN+RcB5FSGFPKZ2WCxj93Vk6crAGz88AGkRZ2VFINubpJFjFmv
TmgZc7OxAkEAy6/kGiS51t8ApbQ9SEDZCWxuSzUeLBug1Smjj3HDcNd5Fe0rE9T0
eMbisnTu9XfnsoVm3md3kOqHZUf2On3wgQJBANZopskYqBAcnBAmweMTn1QzAJrE
wpZtf57LMB4bpbQMwxmZ1vH8VtSEhjPYT49cI95fVppBUUt7N+ev45SEwhECQGei
oduPbiLeqhSlhTy7CfLaga+wYh6tHAL5QagdiQRkDc7TMkTP6Gd/Qh7skhzBGllh
uLpWSKaqPaORnr2aEIECQCZWetuZ2/dSpQGtPkUO4EilDETNzzDxZ8MCHhYAxnMJ
jbVnbhzOqfN4SNTH6zp1V1gT9OzFKbUCymBi3SZsGbU=
-----END RSA PRIVATE KEY-----
Certificate:
    Data:
        Version: 3 (0x2)
        Serial Number: 1 (0x1)
    Signature Algorithm: sha256WithRSAEncryption
        Issuer: C=KR, CN=gilgil
        Validity
            Not Before: Mar  1 00:00:00 2014 GMT
            Not After : Feb 27 00:00:00 2024 GMT
        Subject: C=KR, CN=statics-marketingsites-eus-ms-com.akamaized.net
        Subject Public Key Info:
            Public Key Algorithm: rsaEncryption
                Public-Key: (1024 bit)
                Modulus:
                    00:af:de:e9:74:d6:9d:71:8b:01:b8:62:87:06:99:
                    5a:4d:8e:37:e6:99:5e:be:5b:dc:77:70:d3:3f:2b:
                    ca:9d:a1:a3:d1:33:51:a7:56:82:07:ae:40:fd:a8:
                    76:74:87:4b:81:5e:e5:1f:c7:af:cc:f7:99:11:4e:
                    78:4d:a8:a5:7f:51:11:26:b2:3c:18:78:e4:cf:a4:
                    22:94:3f:3a:be:79:0d:a5:e0:0a:96:7b:34:67:43:
                    e1:33:5c:1d:20:f6:59:cc:a4:a0:90:d2:3e:e8:a4:
                    f1:71:7f:8b:b8:52:3e:16:55:e7:6e:c8:53:91:37:
                    74:31:4a:81:9c:23:30:7c:31
                Exponent: 65537 (0x10001)
        X509v3 extensions:
            X509v3 Basic Constraints: 
                CA:FALSE
            Netscape Comment: 
                OpenSSL Generated Certificate
            X509v3 Subject Key Identifier: 
                9C:BF:A9:A6:09:78:C7:00:DF:58:B2:8C:CB:15:09:03:3A:1E:2B:AD
            X509v3 Authority Key Identifier: 
                DirName:/C=KR/CN=gilgil
                serial:BC:FE:EF:E9:4A:BC:63:F0

    Signature Algorithm: sha256WithRSAEncryption
         c2:d6:28:42:20:cf:05:1f:66:f7:76:f1:cb:f3:2d:0d:e0:31:
         f0:ec:75:1f:01:4d:2a:11:c7:51:23:da:d5:db:0d:7c:98:44:
         b8:e6:cc:7c:0a:1f:48:07:28:ef:5b:a6:3e:bb:d4:43:a6:71:
         99:ad:1b:f8:05:b5:72:f2:bd:12:2b:f4:08:ff:38:a4:76:e2:
         35:c2:d0:19:50:0f:e1:33:3a:88:64:7f:58:77:13:77:90:e8:
         d0:c1:5a:17:2f:1b:ed:71:b6:e8:4a:d5:60:76:f4:a0:57:a3:
         ad:26:dc:c0:6c:51:e2:71:11:b8:1f:a9:8f:21:e2:c3:20:c6:
         87:75
-----BEGIN CERTIFICATE-----
MIICdTCCAd6gAwIBAgIBATANBgkqhkiG9w0BAQsFADAeMQswCQYDVQQGEwJLUjEP
MA0GA1UEAwwGZ2lsZ2lsMCIYDzIwMTQwMzAxMDAwMDAwWhgPMjAyNDAyMjcwMDAw
MDBaMEcxCzAJBgNVBAYTAktSMTgwNgYDVQQDDC9zdGF0aWNzLW1hcmtldGluZ3Np
dGVzLWV1cy1tcy1jb20uYWthbWFpemVkLm5ldDCBnzANBgkqhkiG9w0BAQEFAAOB
jQAwgYkCgYEAr97pdNadcYsBuGKHBplaTY435plevlvcd3DTPyvKnaGj0TNRp1aC
B65A/ah2dIdLgV7lH8evzPeZEU54Tailf1ERJrI8GHjkz6QilD86vnkNpeAKlns0
Z0PhM1wdIPZZzKSgkNI+6KTxcX+LuFI+FlXnbshTkTd0MUqBnCMwfDECAwEAAaOB
lTCBkjAJBgNVHRMEAjAAMCwGCWCGSAGG+EIBDQQfFh1PcGVuU1NMIEdlbmVyYXRl
ZCBDZXJ0aWZpY2F0ZTAdBgNVHQ4EFgQUnL+ppgl4xwDfWLKMyxUJAzoeK60wOAYD
VR0jBDEwL6EipCAwHjELMAkGA1UEBhMCS1IxDzANBgNVBAMMBmdpbGdpbIIJALz+
7+lKvGPwMA0GCSqGSIb3DQEBCwUAA4GBAMLWKEIgzwUfZvd28cvzLQ3gMfDsdR8B
TSoRx1Ej2tXbDXyYRLjmzHwKH0gHKO9bpj671EOmcZmtG/gFtXLyvRIr9Aj/OKR2
4jXC0BlQD+EzOohkf1h3E3eQ6NDBWhcvG+1xtuhK1WB29KBXo60m3MBsUeJxEbgf
qY8h4sMgxod1
-----END CERTIFICATE-----
