-----BEGIN RSA PRIVATE KEY-----
MIICXgIBAAKBgQDQiu4Vats+n1htokeC0/a80LJyt1zp3dJVaznuO7APAHawFQpq
CBPFCg+iVOIrf0n7lYYrYbmntPGSPW9MuY3CXCCQl8TiAw0cMF+Ayaqwl5iCKQ6n
GHroavojEwvbvQtQ8v6Txu8Va0IxuCwoU6w7F3xEBv4BGoyLq61fZODNJwIDAQAB
AoGBAIvHQzN5zwBXX7cEWXg4SJ5gJ+u6OX3Ln4p/d3HV8fjsL6FwSO2vAklEqBv/
VyUeiWEm5Ko5M25UWsLRiMNdb8TKGC4gT2WQ865D4P+4Av/prpt8ABXfr53TuvMO
y8kWgrIYgAqiuAohqk2PORl4Uz9+h+HMXpxa3p4XQ/qqTS8xAkEA/5EJBmK/7GqC
6KqnkPaSbmdJ0FlJP3T8+q/xCEdXljpdyzKSHakMTby0WtFCTo72Wy9CjB1KpGPM
1jBnvDKI/wJBANDlejgh8KqM5oBu5jA7RZ4IJPoefvUEaz9I5Cp9UukPSup5t2j0
F1BNhIkiyK+ZHINU1KaUFXzZhZlriuRgU9kCQQDp1I7YW+PUcQPD09irRx9linW7
/uWI/QY2bGJxu6zE1DRbJbMRFkoemki+S3aKoD2B4rTVtDtGO9YAJ5vSUr6LAkBE
MhYzSwk5dGQvm4S0TDVPAROpP9lsfbPRZiduo5k0kpR/dZrlvYH66kORTXS8trxz
N3dwpjlZl92gl1Yxdi0JAkEA1zP5p2PMRLJ3c6ouDJCnj0phOND29YusVQGJH8iL
NRmwFy1DxEq4ZmV40aFAWIJgtdzIIBJBxnFQUgIbPb4dTg==
-----END RSA PRIVATE KEY-----
Certificate:
    Data:
        Version: 3 (0x2)
        Serial Number: 4 (0x4)
    Signature Algorithm: sha256WithRSAEncryption
        Issuer: C=KR, CN=gilgil
        Validity
            Not Before: Mar  1 00:00:00 2014 GMT
            Not After : Feb 27 00:00:00 2024 GMT
        Subject: C=KR, CN=statics-marketingsites-eas-ms-com.akamaized.net
        Subject Public Key Info:
            Public Key Algorithm: rsaEncryption
                Public-Key: (1024 bit)
                Modulus:
                    00:d0:8a:ee:15:6a:db:3e:9f:58:6d:a2:47:82:d3:
                    f6:bc:d0:b2:72:b7:5c:e9:dd:d2:55:6b:39:ee:3b:
                    b0:0f:00:76:b0:15:0a:6a:08:13:c5:0a:0f:a2:54:
                    e2:2b:7f:49:fb:95:86:2b:61:b9:a7:b4:f1:92:3d:
                    6f:4c:b9:8d:c2:5c:20:90:97:c4:e2:03:0d:1c:30:
                    5f:80:c9:aa:b0:97:98:82:29:0e:a7:18:7a:e8:6a:
                    fa:23:13:0b:db:bd:0b:50:f2:fe:93:c6:ef:15:6b:
                    42:31:b8:2c:28:53:ac:3b:17:7c:44:06:fe:01:1a:
                    8c:8b:ab:ad:5f:64:e0:cd:27
                Exponent: 65537 (0x10001)
        X509v3 extensions:
            X509v3 Basic Constraints: 
                CA:FALSE
            Netscape Comment: 
                OpenSSL Generated Certificate
            X509v3 Subject Key Identifier: 
                1A:60:A1:E4:ED:B7:1A:7E:66:1D:3C:AE:98:CD:19:F8:18:EE:E3:C6
            X509v3 Authority Key Identifier: 
                DirName:/C=KR/CN=gilgil
                serial:BC:FE:EF:E9:4A:BC:63:F0

    Signature Algorithm: sha256WithRSAEncryption
         af:16:b2:5e:65:1d:ca:97:43:44:14:83:b5:ae:84:9b:98:8e:
         1d:e3:53:3b:a1:6a:ca:3c:36:c0:ca:c1:b3:f6:99:5c:d8:4e:
         17:dd:d8:d8:45:4d:b4:f6:64:84:35:ba:a2:e3:ee:a7:14:b1:
         79:8a:b5:25:ae:fc:8d:72:cc:09:01:33:c0:56:a9:65:ab:b0:
         a5:45:a5:a8:a9:17:d7:1b:37:9d:e6:c5:b4:0b:81:d6:9f:d9:
         5c:fd:8f:d8:01:45:bb:44:30:56:fc:81:d1:0f:8c:08:52:85:
         84:86:6e:4e:5a:27:ac:ab:c9:09:98:28:49:06:2e:c3:f7:13:
         8a:30
-----BEGIN CERTIFICATE-----
MIICdTCCAd6gAwIBAgIBBDANBgkqhkiG9w0BAQsFADAeMQswCQYDVQQGEwJLUjEP
MA0GA1UEAwwGZ2lsZ2lsMCIYDzIwMTQwMzAxMDAwMDAwWhgPMjAyNDAyMjcwMDAw
MDBaMEcxCzAJBgNVBAYTAktSMTgwNgYDVQQDDC9zdGF0aWNzLW1hcmtldGluZ3Np
dGVzLWVhcy1tcy1jb20uYWthbWFpemVkLm5ldDCBnzANBgkqhkiG9w0BAQEFAAOB
jQAwgYkCgYEA0IruFWrbPp9YbaJHgtP2vNCycrdc6d3SVWs57juwDwB2sBUKaggT
xQoPolTiK39J+5WGK2G5p7Txkj1vTLmNwlwgkJfE4gMNHDBfgMmqsJeYgikOpxh6
6Gr6IxML270LUPL+k8bvFWtCMbgsKFOsOxd8RAb+ARqMi6utX2TgzScCAwEAAaOB
lTCBkjAJBgNVHRMEAjAAMCwGCWCGSAGG+EIBDQQfFh1PcGVuU1NMIEdlbmVyYXRl
ZCBDZXJ0aWZpY2F0ZTAdBgNVHQ4EFgQUGmCh5O23Gn5mHTyumM0Z+Bju48YwOAYD
VR0jBDEwL6EipCAwHjELMAkGA1UEBhMCS1IxDzANBgNVBAMMBmdpbGdpbIIJALz+
7+lKvGPwMA0GCSqGSIb3DQEBCwUAA4GBAK8Wsl5lHcqXQ0QUg7WuhJuYjh3jUzuh
aso8NsDKwbP2mVzYThfd2NhFTbT2ZIQ1uqLj7qcUsXmKtSWu/I1yzAkBM8BWqWWr
sKVFpaipF9cbN53mxbQLgdaf2Vz9j9gBRbtEMFb8gdEPjAhShYSGbk5aJ6yryQmY
KEkGLsP3E4ow
-----END CERTIFICATE-----
