-----BEGIN RSA PRIVATE KEY-----
MIICXAIBAAKBgQDsvctp9M0stUXZQdU+5/wkB9dbH2a528Yi+P9xlCPzKTwKTwii
2dCGJsJRByKR0Jrkr6E+KsFPAyH803E/q2LfsqjjEyJJFmzadGijaVbbHzUj5cpU
JmN/O/GZGSq+2GbqtcL4F7t3CxA8nKAPqdN20IxKWPjun00tdHt65FpbrQIDAQAB
AoGAK6BKFOt8x8lb5s5f6qi7aTRctjkSKBvc5mL2R8rh2RR3MPshf0keSSppUp86
+p3zfUL0Ns2QM+xC3iFk1DPUE0Q+9G/8IJti8cQIWydyIH9fynxVWWam+bL54aCV
8Zoa77v+QE6YXDqUp3pFG+AqGt1viHvemMmkmcco808byuECQQD/7Ht014aoHvXZ
yLJTLU1gOVdq8CtQ5QXEC2JESaV/WhHfQJSgJelKnVZSO30fWUaEYjI/jo1zu5d1
tl4e726VAkEA7M/Zcv7BK1n44+wp0JY2XC1BS7EQRChB7rKrtCN2vgBoWGK2oKEW
uuXJrQL0qFLTGkdZH8XlSbloIRgcc7MquQJBANhGqS5c1VdOksWxbcINDs66pr2g
qXp7kRvT4v+CnXG6VFAu62tLnpOH02M7EspjT8ygj4ZWmgOsDJtVusS54uECQErm
EmiEmqQTeNzdvPv0Bo1w4s4F2pc0BGZyrEv1S4Ecr+QElK6JRJ8oPnkyDh+O0qXl
GxMpjDOdKIoPDjCp4kECQD6yqKKjw9q+FtSItVnBTGjkNp2FI6Xa6SbRWnDiu5p+
4Pvn7ozvx4Cwx8K+eHMc6Up3ahk8rQWtvih3QXXO/nM=
-----END RSA PRIVATE KEY-----
Certificate:
    Data:
        Version: 3 (0x2)
        Serial Number: 1 (0x1)
    Signature Algorithm: sha256WithRSAEncryption
        Issuer: C=KR, CN=gilgil
        Validity
            Not Before: Mar  1 00:00:00 2014 GMT
            Not After : Feb 27 00:00:00 2024 GMT
        Subject: C=KR, CN=static.nid.naver.com
        Subject Public Key Info:
            Public Key Algorithm: rsaEncryption
                Public-Key: (1024 bit)
                Modulus:
                    00:ec:bd:cb:69:f4:cd:2c:b5:45:d9:41:d5:3e:e7:
                    fc:24:07:d7:5b:1f:66:b9:db:c6:22:f8:ff:71:94:
                    23:f3:29:3c:0a:4f:08:a2:d9:d0:86:26:c2:51:07:
                    22:91:d0:9a:e4:af:a1:3e:2a:c1:4f:03:21:fc:d3:
                    71:3f:ab:62:df:b2:a8:e3:13:22:49:16:6c:da:74:
                    68:a3:69:56:db:1f:35:23:e5:ca:54:26:63:7f:3b:
                    f1:99:19:2a:be:d8:66:ea:b5:c2:f8:17:bb:77:0b:
                    10:3c:9c:a0:0f:a9:d3:76:d0:8c:4a:58:f8:ee:9f:
                    4d:2d:74:7b:7a:e4:5a:5b:ad
                Exponent: 65537 (0x10001)
        X509v3 extensions:
            X509v3 Basic Constraints: 
                CA:FALSE
            Netscape Comment: 
                OpenSSL Generated Certificate
            X509v3 Subject Key Identifier: 
                C6:6C:53:C5:2F:DB:07:8A:65:59:06:78:25:44:DC:81:C6:C5:42:09
            X509v3 Authority Key Identifier: 
                DirName:/C=KR/CN=gilgil
                serial:BC:FE:EF:E9:4A:BC:63:F0

    Signature Algorithm: sha256WithRSAEncryption
         8e:33:ae:d7:51:4c:2c:0a:0f:0e:af:51:82:f3:3c:8b:84:0a:
         e2:e2:07:b7:84:c0:da:56:91:e4:66:a4:db:86:ea:41:f3:fb:
         56:37:46:ff:24:f6:93:3f:b1:c8:34:49:48:68:d9:c1:d4:0a:
         83:33:60:95:ce:0c:f8:fa:27:18:de:75:fd:f8:31:88:48:33:
         b3:2f:43:90:fb:ce:24:a2:35:8a:67:33:41:2d:94:19:ce:7f:
         1d:3b:66:60:79:1d:79:17:22:5c:55:f2:11:ff:0d:e9:4a:23:
         89:23:3d:1d:7a:2c:c8:9e:2e:50:67:dd:b2:72:22:a2:62:5b:
         2c:a9
-----BEGIN CERTIFICATE-----
MIICWjCCAcOgAwIBAgIBATANBgkqhkiG9w0BAQsFADAeMQswCQYDVQQGEwJLUjEP
MA0GA1UEAwwGZ2lsZ2lsMCIYDzIwMTQwMzAxMDAwMDAwWhgPMjAyNDAyMjcwMDAw
MDBaMCwxCzAJBgNVBAYTAktSMR0wGwYDVQQDDBRzdGF0aWMubmlkLm5hdmVyLmNv
bTCBnzANBgkqhkiG9w0BAQEFAAOBjQAwgYkCgYEA7L3LafTNLLVF2UHVPuf8JAfX
Wx9mudvGIvj/cZQj8yk8Ck8IotnQhibCUQcikdCa5K+hPirBTwMh/NNxP6ti37Ko
4xMiSRZs2nRoo2lW2x81I+XKVCZjfzvxmRkqvthm6rXC+Be7dwsQPJygD6nTdtCM
Slj47p9NLXR7euRaW60CAwEAAaOBlTCBkjAJBgNVHRMEAjAAMCwGCWCGSAGG+EIB
DQQfFh1PcGVuU1NMIEdlbmVyYXRlZCBDZXJ0aWZpY2F0ZTAdBgNVHQ4EFgQUxmxT
xS/bB4plWQZ4JUTcgcbFQgkwOAYDVR0jBDEwL6EipCAwHjELMAkGA1UEBhMCS1Ix
DzANBgNVBAMMBmdpbGdpbIIJALz+7+lKvGPwMA0GCSqGSIb3DQEBCwUAA4GBAI4z
rtdRTCwKDw6vUYLzPIuECuLiB7eEwNpWkeRmpNuG6kHz+1Y3Rv8k9pM/scg0SUho
2cHUCoMzYJXODPj6Jxjedf34MYhIM7MvQ5D7ziSiNYpnM0EtlBnOfx07ZmB5HXkX
IlxV8hH/DelKI4kjPR16LMieLlBn3bJyIqJiWyyp
-----END CERTIFICATE-----
