-----BEGIN RSA PRIVATE KEY-----
MIICXAIBAAKBgQDKxC6PLwSy/L4TK2Y7zuXBHDOAPnyykcXQqHUT3jw/5b9RsfTv
MlPAb0grQ0Er1eotne3aTMlcC11rJyoy0z/1w8cN7usWR7BKqerl1rfRZkVoDF7q
QGKdilkuDCX24zOR8OMMUKvwHf9wozZYnjTVwUuj6WQKVfdKJZ/ISoqFMwIDAQAB
AoGBAMb0Yj7qQrEhX5vNnL2YkEXAVyRBq/dHI5NOh7pb+EA2PVh6xbuiZR1P079n
eV36wpHKAaWObJFdMWe/gR9nuru6h9oYPqTgKHPFf3+GuSXUbZ0pw99sm7EZM2zW
TP/mVPliPyL7OQk4EXrL1syOoPOkbsVn2JwZGgCk+bgFf9c5AkEA8C0/SyMareCm
DoUYpMFzywht+6DkVWYb3+tNOPx+/HZpruvWDn/C54DFAHTvQFAYisyk+8ei7XMl
nYRfQi5LBwJBANgf+zP4mDwzLUu6byJxDwjXkt4gmb9bmTfKGTyzHpwKFXNO9fq4
k+cvm5dIp0s/krnPAtnbZmLj/a5Pwb++LXUCQFjb9Lng4AMKxYVDuu1h4Wxxzvc0
/KWX5KJA1U5LJNRVHx6nhIfSvxKVss1LdiUuPRZFRpkcsGv3mSghDHlY1UsCQCKu
tyw25485kzpE19LKG+SKW6pDxwh7VZIrX3NrNy1JPPn9IOI0Pp/p9ukHIrmjoRMq
UkXNvJeACNSxPeFcToUCQE5AwwdE2XzEQ5AI5Je+hY4irFThOCQmN3jg7wm3xPQs
Xby5GvtSGxF+KQxP5SM1fu2e6LVoFCrqMvyEOprGU98=
-----END RSA PRIVATE KEY-----
Certificate:
    Data:
        Version: 3 (0x2)
        Serial Number: 12 (0xc)
    Signature Algorithm: sha256WithRSAEncryption
        Issuer: C=KR, CN=gilgil
        Validity
            Not Before: Mar  1 00:00:00 2014 GMT
            Not After : Feb 27 00:00:00 2024 GMT
        Subject: C=KR, CN=su.addthis.com
        Subject Public Key Info:
            Public Key Algorithm: rsaEncryption
                Public-Key: (1024 bit)
                Modulus:
                    00:ca:c4:2e:8f:2f:04:b2:fc:be:13:2b:66:3b:ce:
                    e5:c1:1c:33:80:3e:7c:b2:91:c5:d0:a8:75:13:de:
                    3c:3f:e5:bf:51:b1:f4:ef:32:53:c0:6f:48:2b:43:
                    41:2b:d5:ea:2d:9d:ed:da:4c:c9:5c:0b:5d:6b:27:
                    2a:32:d3:3f:f5:c3:c7:0d:ee:eb:16:47:b0:4a:a9:
                    ea:e5:d6:b7:d1:66:45:68:0c:5e:ea:40:62:9d:8a:
                    59:2e:0c:25:f6:e3:33:91:f0:e3:0c:50:ab:f0:1d:
                    ff:70:a3:36:58:9e:34:d5:c1:4b:a3:e9:64:0a:55:
                    f7:4a:25:9f:c8:4a:8a:85:33
                Exponent: 65537 (0x10001)
        X509v3 extensions:
            X509v3 Basic Constraints: 
                CA:FALSE
            Netscape Comment: 
                OpenSSL Generated Certificate
            X509v3 Subject Key Identifier: 
                70:A2:85:DB:E5:2E:F7:8E:D6:DA:AE:2E:55:51:12:2C:E4:21:C6:74
            X509v3 Authority Key Identifier: 
                DirName:/C=KR/CN=gilgil
                serial:BC:FE:EF:E9:4A:BC:63:F0

    Signature Algorithm: sha256WithRSAEncryption
         2d:10:4c:d2:f1:19:c8:84:3b:9f:38:95:f4:4b:34:b5:b5:12:
         21:f0:16:d3:57:cf:b1:b3:d5:ec:3a:74:ed:fb:52:ca:6d:6a:
         37:4b:c9:5c:84:76:42:d2:70:fb:d2:07:40:86:64:f3:ab:17:
         bc:14:be:94:f7:f3:7b:c5:0c:6a:bd:56:e3:c8:c9:ec:39:ad:
         ec:83:da:07:28:4d:5c:de:a0:73:4d:65:e7:c1:2e:fd:5d:8d:
         24:44:ae:d0:d7:47:f0:cc:ba:fe:c8:44:d9:1b:ff:61:13:c8:
         28:e0:e1:ad:5b:42:01:ca:6d:84:3c:0a:f0:8c:62:e5:10:e3:
         ad:82
-----BEGIN CERTIFICATE-----
MIICVDCCAb2gAwIBAgIBDDANBgkqhkiG9w0BAQsFADAeMQswCQYDVQQGEwJLUjEP
MA0GA1UEAwwGZ2lsZ2lsMCIYDzIwMTQwMzAxMDAwMDAwWhgPMjAyNDAyMjcwMDAw
MDBaMCYxCzAJBgNVBAYTAktSMRcwFQYDVQQDDA5zdS5hZGR0aGlzLmNvbTCBnzAN
BgkqhkiG9w0BAQEFAAOBjQAwgYkCgYEAysQujy8Esvy+EytmO87lwRwzgD58spHF
0Kh1E948P+W/UbH07zJTwG9IK0NBK9XqLZ3t2kzJXAtdaycqMtM/9cPHDe7rFkew
Sqnq5da30WZFaAxe6kBinYpZLgwl9uMzkfDjDFCr8B3/cKM2WJ401cFLo+lkClX3
SiWfyEqKhTMCAwEAAaOBlTCBkjAJBgNVHRMEAjAAMCwGCWCGSAGG+EIBDQQfFh1P
cGVuU1NMIEdlbmVyYXRlZCBDZXJ0aWZpY2F0ZTAdBgNVHQ4EFgQUcKKF2+Uu947W
2q4uVVESLOQhxnQwOAYDVR0jBDEwL6EipCAwHjELMAkGA1UEBhMCS1IxDzANBgNV
BAMMBmdpbGdpbIIJALz+7+lKvGPwMA0GCSqGSIb3DQEBCwUAA4GBAC0QTNLxGciE
O584lfRLNLW1EiHwFtNXz7Gz1ew6dO37UsptajdLyVyEdkLScPvSB0CGZPOrF7wU
vpT383vFDGq9VuPIyew5reyD2gcoTVzeoHNNZefBLv1djSRErtDXR/DMuv7IRNkb
/2ETyCjg4a1bQgHKbYQ8CvCMYuUQ462C
-----END CERTIFICATE-----
