-----BEGIN RSA PRIVATE KEY-----
MIICXgIBAAKBgQDcMtmMz3A5Ji5Gz17KvzFlnCR3rbhEqml5Jpy8h4jjyP8ELNKT
fGiZBPwClIF6tFB9f8s6sBVzL2ukWi57CdeHG5zBt6OCvF+3GtAFWZO5wzWmB2nE
gfp4TRXaklzV7NksCeee1SosTUa+Wa1xpdJuTCs6ka/fXixvinzeFUYkWQIDAQAB
AoGBAL4dLRVU2DiPTW8XhWkZL8XhzN6DX0/xrcTK4JIplrfMBtmM9XYe+JP86LQ1
kaDmY4QnPMj71FkxvQcWUYErWyeSXvq+MGTUdzKjQnZKQPe5jiBNVvZVOp7l0Laa
SlIgXWXjE8tMhuaOyhR5C688H888C28qrHJx/rQVNfDeXAyxAkEA8BSn8g3TYaeO
sLkpxHAXxLqVRujy8kadfhBmN+d6oz1gELc+uvEwVnvmE45jtGLVS1aTPj11QJvW
3GaL4PYhzQJBAOrMsrBULDHcK8mY7f5MBYSRoig+rKaowYd/e5Z13Ia/ep+0KIYu
YiNojFB9h7rU5U6CpjQU3nYJkUh7+Sxb8L0CQQCeLj3pccqQUQHm1lj6oJBIglbQ
fbN0hapG4S84Lj/TRiEBYnrmWPtsP/37bJmsxGGcXdJt87hJdWQ/myEWe5URAkAO
BOTSZGQzIes3YTssiMt3i957uqpCVScg+PqfFDBzlzEyIeadhF11scNW9vfIrvd2
BZT43RofQBj9k/FftamdAkEA39EyKr8pAIzaF9UgFr0qQcXRKipLyHyIyXaJuTjq
BWMynhrgIpTPyObIX9TgqDF3NKorpADaPU5Y0G8TOrgrkA==
-----END RSA PRIVATE KEY-----
Certificate:
    Data:
        Version: 3 (0x2)
        Serial Number: 14 (0xe)
    Signature Algorithm: sha256WithRSAEncryption
        Issuer: C=KR, CN=gilgil
        Validity
            Not Before: Mar  1 00:00:00 2014 GMT
            Not After : Feb 27 00:00:00 2024 GMT
        Subject: C=KR, CN=sync.mathtag.com
        Subject Public Key Info:
            Public Key Algorithm: rsaEncryption
                Public-Key: (1024 bit)
                Modulus:
                    00:dc:32:d9:8c:cf:70:39:26:2e:46:cf:5e:ca:bf:
                    31:65:9c:24:77:ad:b8:44:aa:69:79:26:9c:bc:87:
                    88:e3:c8:ff:04:2c:d2:93:7c:68:99:04:fc:02:94:
                    81:7a:b4:50:7d:7f:cb:3a:b0:15:73:2f:6b:a4:5a:
                    2e:7b:09:d7:87:1b:9c:c1:b7:a3:82:bc:5f:b7:1a:
                    d0:05:59:93:b9:c3:35:a6:07:69:c4:81:fa:78:4d:
                    15:da:92:5c:d5:ec:d9:2c:09:e7:9e:d5:2a:2c:4d:
                    46:be:59:ad:71:a5:d2:6e:4c:2b:3a:91:af:df:5e:
                    2c:6f:8a:7c:de:15:46:24:59
                Exponent: 65537 (0x10001)
        X509v3 extensions:
            X509v3 Basic Constraints: 
                CA:FALSE
            Netscape Comment: 
                OpenSSL Generated Certificate
            X509v3 Subject Key Identifier: 
                88:03:E3:5A:02:D1:12:D5:F9:C1:44:82:00:1D:3E:D9:25:BE:D8:94
            X509v3 Authority Key Identifier: 
                DirName:/C=KR/CN=gilgil
                serial:BC:FE:EF:E9:4A:BC:63:F0

    Signature Algorithm: sha256WithRSAEncryption
         a3:a5:41:0d:4a:58:45:ee:e5:7d:7d:22:9f:3c:63:fb:67:78:
         d3:48:ce:0c:e9:3c:94:1b:6c:9a:01:f8:a0:2d:47:2b:d5:c4:
         cd:c0:96:b9:9c:ca:39:cf:ca:2f:7a:50:c5:0e:54:24:dd:eb:
         c6:69:86:c5:e3:57:ac:d6:bd:7a:af:8b:b1:d3:c9:ab:7e:5d:
         cc:34:15:b4:22:48:c9:9a:e0:5c:49:01:39:40:fa:f2:7a:03:
         e8:48:7d:5e:a5:09:fa:e0:78:64:e3:a4:93:49:d5:e8:62:fe:
         80:c1:87:b4:c0:97:6e:85:63:0a:23:2c:e8:46:9a:88:db:ac:
         8a:23
-----BEGIN CERTIFICATE-----
MIICVjCCAb+gAwIBAgIBDjANBgkqhkiG9w0BAQsFADAeMQswCQYDVQQGEwJLUjEP
MA0GA1UEAwwGZ2lsZ2lsMCIYDzIwMTQwMzAxMDAwMDAwWhgPMjAyNDAyMjcwMDAw
MDBaMCgxCzAJBgNVBAYTAktSMRkwFwYDVQQDDBBzeW5jLm1hdGh0YWcuY29tMIGf
MA0GCSqGSIb3DQEBAQUAA4GNADCBiQKBgQDcMtmMz3A5Ji5Gz17KvzFlnCR3rbhE
qml5Jpy8h4jjyP8ELNKTfGiZBPwClIF6tFB9f8s6sBVzL2ukWi57CdeHG5zBt6OC
vF+3GtAFWZO5wzWmB2nEgfp4TRXaklzV7NksCeee1SosTUa+Wa1xpdJuTCs6ka/f
XixvinzeFUYkWQIDAQABo4GVMIGSMAkGA1UdEwQCMAAwLAYJYIZIAYb4QgENBB8W
HU9wZW5TU0wgR2VuZXJhdGVkIENlcnRpZmljYXRlMB0GA1UdDgQWBBSIA+NaAtES
1fnBRIIAHT7ZJb7YlDA4BgNVHSMEMTAvoSKkIDAeMQswCQYDVQQGEwJLUjEPMA0G
A1UEAwwGZ2lsZ2lsggkAvP7v6Uq8Y/AwDQYJKoZIhvcNAQELBQADgYEAo6VBDUpY
Re7lfX0inzxj+2d400jODOk8lBtsmgH4oC1HK9XEzcCWuZzKOc/KL3pQxQ5UJN3r
xmmGxeNXrNa9eq+LsdPJq35dzDQVtCJIyZrgXEkBOUD68noD6Eh9XqUJ+uB4ZOOk
k0nV6GL+gMGHtMCXboVjCiMs6EaaiNusiiM=
-----END CERTIFICATE-----
