-----BEGIN RSA PRIVATE KEY-----
MIICXQIBAAKBgQDe4RmTu8uQdO1DHPSMPgeVoNGiG0JGr/kIeg/mnc6tueWuiq/R
UimQGGDV5xcnIE2WZQaPuEIJ1c1ZQRggSFD5k1huuMH7822eVint0U1AwNcg80vs
ik3eDAKTv+YAgn1ujyq3bGZrPnw6m/wX9XOf6LJ/LRhhGzMWtOXQy5XEiwIDAQAB
AoGBAM7mG74+6PvS76YLrSC7PIM0ZSadM2s3VHEADt7Aw+oV1hevewNPyHGRj+NB
wQZ7QEtKwUqNfBBxP02J1gGx4CfzkX643tAunZEOthXal+3cTJIeFZsHCcoRRMZE
vMqSD3fA/Co70xD+dK0WKzTrE7pjX2mpMYpccdAGZDat29IRAkEA8dHDJgKpkDUX
YmdApSSjk0P/jrs4td/crviOD0CTvs1UjwRwYwLONhRwU38MMR8zFiAjF1gfmzYH
KDaxO1zY3wJBAOvzAWeEcuzpo45ppLY2VG5S8ymBHsIWmCC+r52HixU6dT4h1lUZ
vHN0qOtd0ZzSxgzxylrDjF3t18+WsA/uDdUCQBjq1WH4SkKaxeMU4pthsB0/l3i8
n/ZVr+azo+e8brztaXYnLfF124vFBWIFKFtzbI8uFo+UPAWBRrGFGTQVuB8CQBH2
LMwxlAIfAxlrR2OrnR/M5r/pGWtTBv+vJHVMhTT3f0dckhFmZScw4U8RlExo6zS/
D1V7f2sDGSOvZ/W+fIUCQQDqo10SvgZb9mZACxTRYFgIj77080NGr1yvGf33y/O6
z6RBwSr3Mv83Ny7B6NwdW4aLFTJ2y5Grzs3sMtiqiI1m
-----END RSA PRIVATE KEY-----
Certificate:
    Data:
        Version: 3 (0x2)
        Serial Number: 7 (0x7)
    Signature Algorithm: sha256WithRSAEncryption
        Issuer: C=KR, CN=gilgil
        Validity
            Not Before: Mar  1 00:00:00 2014 GMT
            Not After : Feb 27 00:00:00 2024 GMT
        Subject: C=KR, CN=t1.daumcdn.net
        Subject Public Key Info:
            Public Key Algorithm: rsaEncryption
                Public-Key: (1024 bit)
                Modulus:
                    00:de:e1:19:93:bb:cb:90:74:ed:43:1c:f4:8c:3e:
                    07:95:a0:d1:a2:1b:42:46:af:f9:08:7a:0f:e6:9d:
                    ce:ad:b9:e5:ae:8a:af:d1:52:29:90:18:60:d5:e7:
                    17:27:20:4d:96:65:06:8f:b8:42:09:d5:cd:59:41:
                    18:20:48:50:f9:93:58:6e:b8:c1:fb:f3:6d:9e:56:
                    29:ed:d1:4d:40:c0:d7:20:f3:4b:ec:8a:4d:de:0c:
                    02:93:bf:e6:00:82:7d:6e:8f:2a:b7:6c:66:6b:3e:
                    7c:3a:9b:fc:17:f5:73:9f:e8:b2:7f:2d:18:61:1b:
                    33:16:b4:e5:d0:cb:95:c4:8b
                Exponent: 65537 (0x10001)
        X509v3 extensions:
            X509v3 Basic Constraints: 
                CA:FALSE
            Netscape Comment: 
                OpenSSL Generated Certificate
            X509v3 Subject Key Identifier: 
                83:43:66:CA:05:E7:CA:C7:5D:E2:40:E2:D9:9E:17:DF:97:2C:1E:1D
            X509v3 Authority Key Identifier: 
                DirName:/C=KR/CN=gilgil
                serial:BC:FE:EF:E9:4A:BC:63:F0

    Signature Algorithm: sha256WithRSAEncryption
         67:64:95:00:d8:f8:17:a9:3c:7c:71:c9:3b:9c:df:fd:a2:dc:
         50:fd:2e:b4:72:52:34:87:69:8c:78:3d:23:6f:d2:15:ec:97:
         11:f1:cd:fc:5b:38:89:9d:cb:66:4d:b8:6e:93:5a:c5:c6:50:
         e5:6f:28:2c:ab:34:72:ee:99:df:ab:17:45:5f:93:6e:25:d8:
         9e:8b:cb:5f:46:9a:65:8b:41:cf:b9:3f:3b:81:62:77:6a:ad:
         15:2b:c8:70:7e:bc:bf:cf:75:0d:72:70:5f:97:2a:47:c2:83:
         7d:22:c9:2f:ff:87:1c:a6:5d:a9:d6:c3:42:ce:37:0b:3e:88:
         bc:75
-----BEGIN CERTIFICATE-----
MIICVDCCAb2gAwIBAgIBBzANBgkqhkiG9w0BAQsFADAeMQswCQYDVQQGEwJLUjEP
MA0GA1UEAwwGZ2lsZ2lsMCIYDzIwMTQwMzAxMDAwMDAwWhgPMjAyNDAyMjcwMDAw
MDBaMCYxCzAJBgNVBAYTAktSMRcwFQYDVQQDDA50MS5kYXVtY2RuLm5ldDCBnzAN
BgkqhkiG9w0BAQEFAAOBjQAwgYkCgYEA3uEZk7vLkHTtQxz0jD4HlaDRohtCRq/5
CHoP5p3Orbnlroqv0VIpkBhg1ecXJyBNlmUGj7hCCdXNWUEYIEhQ+ZNYbrjB+/Nt
nlYp7dFNQMDXIPNL7IpN3gwCk7/mAIJ9bo8qt2xmaz58Opv8F/Vzn+iyfy0YYRsz
FrTl0MuVxIsCAwEAAaOBlTCBkjAJBgNVHRMEAjAAMCwGCWCGSAGG+EIBDQQfFh1P
cGVuU1NMIEdlbmVyYXRlZCBDZXJ0aWZpY2F0ZTAdBgNVHQ4EFgQUg0NmygXnysdd
4kDi2Z4X35csHh0wOAYDVR0jBDEwL6EipCAwHjELMAkGA1UEBhMCS1IxDzANBgNV
BAMMBmdpbGdpbIIJALz+7+lKvGPwMA0GCSqGSIb3DQEBCwUAA4GBAGdklQDY+Bep
PHxxyTuc3/2i3FD9LrRyUjSHaYx4PSNv0hXslxHxzfxbOImdy2ZNuG6TWsXGUOVv
KCyrNHLumd+rF0Vfk24l2J6Ly19GmmWLQc+5PzuBYndqrRUryHB+vL/PdQ1ycF+X
KkfCg30iyS//hxymXanWw0LONws+iLx1
-----END CERTIFICATE-----
