-----BEGIN RSA PRIVATE KEY-----
MIICXAIBAAKBgQCrOs360ZXMyvY1qaIZBhiHnQiX90rA5UKUFp88mZNF/BNz8FI0
VSsyUoDMSyA8uNFSpmOJr8ElWISxwVo1eF9OvTxeE/TXS7zSdQmuREtIZvJRdm9f
ub/lgYwvBpGm0tkdprGj6aFQ3h6QlhMh6/cyw5Tm1MAeTL3F4wHPP5HsVwIDAQAB
AoGAc0Hn+JcvMGTGCiUfGZ0C0fYgHLq2tNUdVbVMhmwRuCAPsBDqJJPXuc3TKLDB
CF6Xd/zML5gAePT2jPhLkoZuD+We401kTD+35JofbROUaUqWRgc8+097S0X0vPX0
tPqJdWNRQuuhjoC9BekrF1HspjZlobjJnTw6nYJCuN4DRZECQQDh9CLFMgMRz+a+
GFa4UdJd04w00J9+sci7xVzidA4/geA+Oizu6KgW5O5p3n3iArmG5//gWGpnoQQ0
V9U36SqVAkEAwf/EqqCOxizSueb1gKlKlmT/I8ZEY4vE87zMn8JmYfoHuXaU0GD5
FJhuDy8f/Pq0kuwzw0GcWMIf4q6Z3hWsOwJAK5RKoH3k2aqfdkp7b1FYoYALqqQS
Hv1rGcwW/hYkKVuDRH0z7WAyCzhcQ08GOHEOF1bnov1qiFIl3XKTTRVLgQJACxIp
iwM2oqCUNf+0Ku9+Ti7dUJFT/cpQJwizNLrHVPgL0M2vmGSwUjiQr1UlIi68d1X7
bj0kSvxpDWqhZUcfWQJBAMcpH9i+qDB3pleBSiFDDbI4G2hC29OEBVt9hv0twHCr
ZGsp4U5TxOcuJU6aCGBquTFLdj3HeBkcVkemTt65Ank=
-----END RSA PRIVATE KEY-----
Certificate:
    Data:
        Version: 3 (0x2)
        Serial Number: 1 (0x1)
    Signature Algorithm: sha256WithRSAEncryption
        Issuer: C=KR, CN=gilgil
        Validity
            Not Before: Mar  1 00:00:00 2014 GMT
            Not After : Feb 27 00:00:00 2024 GMT
        Subject: C=KR, CN=test.com
        Subject Public Key Info:
            Public Key Algorithm: rsaEncryption
                Public-Key: (1024 bit)
                Modulus:
                    00:ab:3a:cd:fa:d1:95:cc:ca:f6:35:a9:a2:19:06:
                    18:87:9d:08:97:f7:4a:c0:e5:42:94:16:9f:3c:99:
                    93:45:fc:13:73:f0:52:34:55:2b:32:52:80:cc:4b:
                    20:3c:b8:d1:52:a6:63:89:af:c1:25:58:84:b1:c1:
                    5a:35:78:5f:4e:bd:3c:5e:13:f4:d7:4b:bc:d2:75:
                    09:ae:44:4b:48:66:f2:51:76:6f:5f:b9:bf:e5:81:
                    8c:2f:06:91:a6:d2:d9:1d:a6:b1:a3:e9:a1:50:de:
                    1e:90:96:13:21:eb:f7:32:c3:94:e6:d4:c0:1e:4c:
                    bd:c5:e3:01:cf:3f:91:ec:57
                Exponent: 65537 (0x10001)
        X509v3 extensions:
            X509v3 Basic Constraints: 
                CA:FALSE
            Netscape Comment: 
                OpenSSL Generated Certificate
            X509v3 Subject Key Identifier: 
                51:9D:26:17:58:63:3A:71:D2:35:9E:4C:9F:DB:59:5F:04:26:18:D2
            X509v3 Authority Key Identifier: 
                DirName:/C=KR/CN=gilgil
                serial:BC:FE:EF:E9:4A:BC:63:F0

    Signature Algorithm: sha256WithRSAEncryption
         b1:30:76:35:46:8b:67:99:82:26:5a:12:20:b7:d1:9c:cb:93:
         fd:8b:e5:03:e3:e8:25:b2:f5:4c:01:dd:60:16:de:75:d4:47:
         41:90:0c:e3:bd:01:0a:8f:d6:49:51:9b:ba:75:5c:4b:be:a5:
         37:18:fe:9b:ad:f4:8a:f2:3b:13:02:0d:fc:b6:14:7a:36:45:
         18:4c:55:52:b7:fb:77:b3:d2:47:ae:a3:4e:9d:85:3f:ef:ac:
         ab:2c:ca:67:dd:98:e8:0a:95:25:31:96:8a:c6:aa:59:23:8f:
         5c:1f:b9:ee:bc:e1:4c:08:c9:87:44:43:63:cd:65:02:b9:44:
         9c:72
-----BEGIN CERTIFICATE-----
MIICTjCCAbegAwIBAgIBATANBgkqhkiG9w0BAQsFADAeMQswCQYDVQQGEwJLUjEP
MA0GA1UEAwwGZ2lsZ2lsMCIYDzIwMTQwMzAxMDAwMDAwWhgPMjAyNDAyMjcwMDAw
MDBaMCAxCzAJBgNVBAYTAktSMREwDwYDVQQDDAh0ZXN0LmNvbTCBnzANBgkqhkiG
9w0BAQEFAAOBjQAwgYkCgYEAqzrN+tGVzMr2NamiGQYYh50Il/dKwOVClBafPJmT
RfwTc/BSNFUrMlKAzEsgPLjRUqZjia/BJViEscFaNXhfTr08XhP010u80nUJrkRL
SGbyUXZvX7m/5YGMLwaRptLZHaaxo+mhUN4ekJYTIev3MsOU5tTAHky9xeMBzz+R
7FcCAwEAAaOBlTCBkjAJBgNVHRMEAjAAMCwGCWCGSAGG+EIBDQQfFh1PcGVuU1NM
IEdlbmVyYXRlZCBDZXJ0aWZpY2F0ZTAdBgNVHQ4EFgQUUZ0mF1hjOnHSNZ5Mn9tZ
XwQmGNIwOAYDVR0jBDEwL6EipCAwHjELMAkGA1UEBhMCS1IxDzANBgNVBAMMBmdp
bGdpbIIJALz+7+lKvGPwMA0GCSqGSIb3DQEBCwUAA4GBALEwdjVGi2eZgiZaEiC3
0ZzLk/2L5QPj6CWy9UwB3WAW3nXUR0GQDOO9AQqP1klRm7p1XEu+pTcY/put9Iry
OxMCDfy2FHo2RRhMVVK3+3ez0keuo06dhT/vrKssymfdmOgKlSUxlorGqlkjj1wf
ue684UwIyYdEQ2PNZQK5RJxy
-----END CERTIFICATE-----
