-----BEGIN RSA PRIVATE KEY-----
MIICWwIBAAKBgQCrkBolSjLGmpPoKSR5IRjcZVTE1usu71xSHYa6l8HbH1pNSG8G
w/HZF24iTgvQds2+4w1CFGBwht9dN1MMYK969QZefc86qot/4iZFfzgVsofHNza0
KSXc3rQlfuOOHDjsxQQXfPPV+cW8aUMis6mlMROemZNcFoFwT3cB67yM1wIDAQAB
AoGAJnFCuopWuFPYwpO9fXriFDiMdxLlXf36hNfi4ZqxsITk+h456p0rawaqAfvU
/+AvGA/OX7krJuvBzyRfco2TpC6YhEhU6SIEDMtJQNWkVfKxD12QMdGb1iuKoZYL
D2Z2jr4soUqH/zHGRXgur0OOLtjOwLPOB0wqH4+BwNHI4WECQQDZry1ajo83LTBd
5FVhCz/QcIQbMcY1YqFvnWig1TXkqF8BKu3X7QVZomR/UdnHFhce7FCTIC8pWa7w
n7YIWggnAkEAycKzrUOtcHQ1n4WFzB2+8PGE7Lbk0iQOutH2nEDoxxtQnZgl12tx
C7UconK3HMUpXK9/fViSQna/egxNwvcT0QJAK2BHtkq/6Ou9PohYJv052wwAlval
G1ArAPWpupqhoY2XWME4IZWeQk0kn2Ys8gnJ06SdLaP1IdU4EcSRXjqqcwJAU3j0
MVjwprfNf6QUSPB9kN27atv4K2Czn2NCrj7Ej6ujXLAX59oRuRBDOopPa92+URRi
oI9GY60RZwM0INdsIQJAL6KoxSCusoG5ucYKrmGGoyzKA00ypYS4LqNlyaHYvWod
eR7VVLsZMc2Jp9Acr/9jSWkwfrsq9gOUCHZEIpS61g==
-----END RSA PRIVATE KEY-----
Certificate:
    Data:
        Version: 3 (0x2)
        Serial Number: 3 (0x3)
    Signature Algorithm: sha256WithRSAEncryption
        Issuer: C=KR, CN=gilgil
        Validity
            Not Before: Mar  1 00:00:00 2014 GMT
            Not After : Feb 27 00:00:00 2024 GMT
        Subject: C=KR, CN=track.tiara.daum.net
        Subject Public Key Info:
            Public Key Algorithm: rsaEncryption
                Public-Key: (1024 bit)
                Modulus:
                    00:ab:90:1a:25:4a:32:c6:9a:93:e8:29:24:79:21:
                    18:dc:65:54:c4:d6:eb:2e:ef:5c:52:1d:86:ba:97:
                    c1:db:1f:5a:4d:48:6f:06:c3:f1:d9:17:6e:22:4e:
                    0b:d0:76:cd:be:e3:0d:42:14:60:70:86:df:5d:37:
                    53:0c:60:af:7a:f5:06:5e:7d:cf:3a:aa:8b:7f:e2:
                    26:45:7f:38:15:b2:87:c7:37:36:b4:29:25:dc:de:
                    b4:25:7e:e3:8e:1c:38:ec:c5:04:17:7c:f3:d5:f9:
                    c5:bc:69:43:22:b3:a9:a5:31:13:9e:99:93:5c:16:
                    81:70:4f:77:01:eb:bc:8c:d7
                Exponent: 65537 (0x10001)
        X509v3 extensions:
            X509v3 Basic Constraints: 
                CA:FALSE
            Netscape Comment: 
                OpenSSL Generated Certificate
            X509v3 Subject Key Identifier: 
                EC:70:22:BB:8B:64:70:8A:AB:6D:F0:30:18:6B:C6:4E:91:0B:D9:2B
            X509v3 Authority Key Identifier: 
                DirName:/C=KR/CN=gilgil
                serial:BC:FE:EF:E9:4A:BC:63:F0

    Signature Algorithm: sha256WithRSAEncryption
         5d:5b:87:49:59:8c:3b:13:b4:af:0a:90:e6:ff:3f:4a:c2:d6:
         08:e2:6e:c2:b0:0a:42:80:85:ac:cf:90:d4:01:77:4b:d8:9f:
         7d:30:c7:47:c7:f0:b7:3a:a0:92:f3:e6:fc:c4:69:68:ad:f0:
         a3:c0:16:87:1f:61:bc:1c:36:97:3f:47:00:c9:e7:f7:0d:72:
         9c:c2:34:2a:1b:a3:ce:b0:2b:43:0f:cd:b1:1f:f6:a8:90:b2:
         bb:2c:4f:51:07:be:ad:da:fa:92:18:fe:58:1c:85:99:c4:eb:
         f8:95:40:26:57:63:99:f8:a0:a5:55:22:13:4e:1b:30:63:fa:
         9c:ca
-----BEGIN CERTIFICATE-----
MIICWjCCAcOgAwIBAgIBAzANBgkqhkiG9w0BAQsFADAeMQswCQYDVQQGEwJLUjEP
MA0GA1UEAwwGZ2lsZ2lsMCIYDzIwMTQwMzAxMDAwMDAwWhgPMjAyNDAyMjcwMDAw
MDBaMCwxCzAJBgNVBAYTAktSMR0wGwYDVQQDDBR0cmFjay50aWFyYS5kYXVtLm5l
dDCBnzANBgkqhkiG9w0BAQEFAAOBjQAwgYkCgYEAq5AaJUoyxpqT6CkkeSEY3GVU
xNbrLu9cUh2GupfB2x9aTUhvBsPx2RduIk4L0HbNvuMNQhRgcIbfXTdTDGCvevUG
Xn3POqqLf+ImRX84FbKHxzc2tCkl3N60JX7jjhw47MUEF3zz1fnFvGlDIrOppTET
npmTXBaBcE93Aeu8jNcCAwEAAaOBlTCBkjAJBgNVHRMEAjAAMCwGCWCGSAGG+EIB
DQQfFh1PcGVuU1NMIEdlbmVyYXRlZCBDZXJ0aWZpY2F0ZTAdBgNVHQ4EFgQU7HAi
u4tkcIqrbfAwGGvGTpEL2SswOAYDVR0jBDEwL6EipCAwHjELMAkGA1UEBhMCS1Ix
DzANBgNVBAMMBmdpbGdpbIIJALz+7+lKvGPwMA0GCSqGSIb3DQEBCwUAA4GBAF1b
h0lZjDsTtK8KkOb/P0rC1gjibsKwCkKAhazPkNQBd0vYn30wx0fH8Lc6oJLz5vzE
aWit8KPAFocfYbwcNpc/RwDJ5/cNcpzCNCobo86wK0MPzbEf9qiQsrssT1EHvq3a
+pIY/lgchZnE6/iVQCZXY5n4oKVVIhNOGzBj+pzK
-----END CERTIFICATE-----
