-----BEGIN RSA PRIVATE KEY-----
MIICXQIBAAKBgQCga3bewDEgnnG8mhNxuCM8trMGWRwoVl4RvqmAR5YCVg5w2qds
p6uA4FkOsYCcFIAPL1PIheerWaGqzkEeD2qtbhwdmV2/VgH2qEFZUgi32xdYYk2d
TydJjsLQh54H39O0BudiG7RkM+jXyktfIuMRTHbQV9ANQOCh3Qh/+JfMSwIDAQAB
AoGBAIqXzX7stITl3oV+58WbvHW7sjeNzRHcbDEQdAhr0GH8T0WY4oSw5y7UpJxZ
Ji+yVmDIFq5rYZdcPJwAzalW0GXe95u4IaG3zO9+MKx/FwCegRZmAyEi+wy1mqQt
HupOberHF95xbPSTSPk2WSaJn5+YQo02QLgqbRYH2hqfFIjBAkEA071AmJoEyNfJ
bZ8JXUg+Mn2qxDACVYqs+8kXHfdzKjifFISiP7IYVTyfpqiZh/1Vdvu46V5F+UXH
hykoM1OHiQJBAMHz90hJWp6a8V67Xd1n4DJLoqAwRf/6HW4jZzu8W8CL5xPU+GzJ
NaREiHEadSX3CTjjE4634onUCX+FzvwWbDMCQQCc22iNJBxDRUhdQyHGzwv0j5AA
AqjYAgGgDRppArV4I7YFlzQzB5ZrHpwO9Hu4eH3lxRj5GPOxdHYZtO2pCEoxAkAd
Ziufi27vB7F6mJAb1XkIZqqZ+XdC29jGLxug1GZcA1jdirS1WLKG2dSMwGPtg0qk
ktcOFRWDqt5dtByx3Xw9AkAWC4ewG1rgUq3JkDLX1F6OoOe7riVQTvRMX9+RZX5Q
mfGpL3IjHWcAh1N9KV4C1DgXqR4THWKy9g3eMgHStV9V
-----END RSA PRIVATE KEY-----
Certificate:
    Data:
        Version: 3 (0x2)
        Serial Number: 13 (0xd)
    Signature Algorithm: sha256WithRSAEncryption
        Issuer: C=KR, CN=gilgil
        Validity
            Not Before: Mar  1 00:00:00 2014 GMT
            Not After : Feb 27 00:00:00 2024 GMT
        Subject: C=KR, CN=translate.googleapis.com
        Subject Public Key Info:
            Public Key Algorithm: rsaEncryption
                Public-Key: (1024 bit)
                Modulus:
                    00:a0:6b:76:de:c0:31:20:9e:71:bc:9a:13:71:b8:
                    23:3c:b6:b3:06:59:1c:28:56:5e:11:be:a9:80:47:
                    96:02:56:0e:70:da:a7:6c:a7:ab:80:e0:59:0e:b1:
                    80:9c:14:80:0f:2f:53:c8:85:e7:ab:59:a1:aa:ce:
                    41:1e:0f:6a:ad:6e:1c:1d:99:5d:bf:56:01:f6:a8:
                    41:59:52:08:b7:db:17:58:62:4d:9d:4f:27:49:8e:
                    c2:d0:87:9e:07:df:d3:b4:06:e7:62:1b:b4:64:33:
                    e8:d7:ca:4b:5f:22:e3:11:4c:76:d0:57:d0:0d:40:
                    e0:a1:dd:08:7f:f8:97:cc:4b
                Exponent: 65537 (0x10001)
        X509v3 extensions:
            X509v3 Basic Constraints: 
                CA:FALSE
            Netscape Comment: 
                OpenSSL Generated Certificate
            X509v3 Subject Key Identifier: 
                0C:59:DA:67:08:60:65:E5:0D:8B:DE:67:45:9D:49:7C:38:F4:03:E4
            X509v3 Authority Key Identifier: 
                DirName:/C=KR/CN=gilgil
                serial:BC:FE:EF:E9:4A:BC:63:F0

    Signature Algorithm: sha256WithRSAEncryption
         a2:df:dc:c0:0a:e6:33:eb:95:8f:09:97:15:06:c0:1f:31:4e:
         f8:65:f2:d5:c5:e0:a2:b3:62:7f:c9:d0:45:9e:73:ad:06:66:
         cf:5c:30:b5:79:90:7b:5e:58:86:88:db:e2:8e:f4:38:b4:90:
         09:7b:a3:c0:b3:c8:b8:4d:f7:f0:cc:f1:5a:c3:03:e9:df:2f:
         78:64:f1:16:2d:7a:ac:d2:27:35:53:40:ce:86:15:b9:63:04:
         6a:ac:a9:e4:55:86:59:c6:b2:90:49:a2:72:4f:19:55:79:02:
         17:cb:c4:c2:cb:03:3e:7e:17:74:01:43:5f:42:be:73:73:9d:
         97:a7
-----BEGIN CERTIFICATE-----
MIICXjCCAcegAwIBAgIBDTANBgkqhkiG9w0BAQsFADAeMQswCQYDVQQGEwJLUjEP
MA0GA1UEAwwGZ2lsZ2lsMCIYDzIwMTQwMzAxMDAwMDAwWhgPMjAyNDAyMjcwMDAw
MDBaMDAxCzAJBgNVBAYTAktSMSEwHwYDVQQDDBh0cmFuc2xhdGUuZ29vZ2xlYXBp
cy5jb20wgZ8wDQYJKoZIhvcNAQEBBQADgY0AMIGJAoGBAKBrdt7AMSCecbyaE3G4
Izy2swZZHChWXhG+qYBHlgJWDnDap2ynq4DgWQ6xgJwUgA8vU8iF56tZoarOQR4P
aq1uHB2ZXb9WAfaoQVlSCLfbF1hiTZ1PJ0mOwtCHngff07QG52IbtGQz6NfKS18i
4xFMdtBX0A1A4KHdCH/4l8xLAgMBAAGjgZUwgZIwCQYDVR0TBAIwADAsBglghkgB
hvhCAQ0EHxYdT3BlblNTTCBHZW5lcmF0ZWQgQ2VydGlmaWNhdGUwHQYDVR0OBBYE
FAxZ2mcIYGXlDYveZ0WdSXw49APkMDgGA1UdIwQxMC+hIqQgMB4xCzAJBgNVBAYT
AktSMQ8wDQYDVQQDDAZnaWxnaWyCCQC8/u/pSrxj8DANBgkqhkiG9w0BAQsFAAOB
gQCi39zACuYz65WPCZcVBsAfMU74ZfLVxeCis2J/ydBFnnOtBmbPXDC1eZB7XliG
iNvijvQ4tJAJe6PAs8i4TffwzPFawwPp3y94ZPEWLXqs0ic1U0DOhhW5YwRqrKnk
VYZZxrKQSaJyTxlVeQIXy8TCywM+fhd0AUNfQr5zc52Xpw==
-----END CERTIFICATE-----
