-----BEGIN RSA PRIVATE KEY-----
MIICXAIBAAKBgQDCAPxsMjQFDdtxVRz+aYLj29gvaLKLcAjNaPs2eXRn7bUdUN1z
31/KO9Brg7pdlmNoUSox9bDtvAk1iAfrx+0M5kEZVqxFyF5KygOV5DuDtCTOITgk
lZE0paXLmKzXAHmjXDEMamoT4gT4VZsHzNIuRFazna96uce3E6VwROYLsQIDAQAB
AoGAF+mjM3rkqpLQr6F8F2fN+GQKu50+FK3Uh+0eudIypPTJ1Dk5cqTf27+PqxDr
kcmNqzgF6W6NRmBdCjogL9HOyAdQ+MhI80sAU3ny+WBUP6xQDSQ2s5pZ/xq7sjtx
GkZ6Bb8VxOovKGplxjidPXde4480Xwi0JhoAjpxGTAMdN1kCQQDgP0uexmXBkHj9
9QgvrjR57i+j2CYPIzrDCWC9dPTJ81ZuUoeyjRYPPwrHdap/1sHAHjO3rEsjzMMh
kpNwu0QLAkEA3Xlm/+iM7yyv8T9xRNJE4Np6m2xL0Vwen6d6ifvOc30aYOxFt8wt
HtNYZ7Cs89sR0Fg/FoaNIgifv3dQZJNoswJBALwlHwNGHlX7KyiYD5hBpxGuQBZN
4hDNVB4TnjEXEdLm8Vt6rxOlwB5mnFqhZL4Bp2nTbTzrt9d/kzB11HK/C+UCQHSr
a5MMEpI8XEMeRLEYg6hf747IsfgMKyW3uFnQCKXWFXtRfDiimnJOq5eT/shHc07p
7fIT121CVcUrOXKCJPkCQAln/Mr+SVIyQ6eryfmZC7utOubfarLS5QNTQXcWNQlq
+yi9EIogvB4e6yLlLYMhFu0OhiXkR0e2/cWV0j4uic4=
-----END RSA PRIVATE KEY-----
Certificate:
    Data:
        Version: 3 (0x2)
        Serial Number: 10 (0xa)
    Signature Algorithm: sha256WithRSAEncryption
        Issuer: C=KR, CN=gilgil
        Validity
            Not Before: Mar  1 00:00:00 2014 GMT
            Not After : Feb 27 00:00:00 2024 GMT
        Subject: C=KR, CN=translate.google.com
        Subject Public Key Info:
            Public Key Algorithm: rsaEncryption
                Public-Key: (1024 bit)
                Modulus:
                    00:c2:00:fc:6c:32:34:05:0d:db:71:55:1c:fe:69:
                    82:e3:db:d8:2f:68:b2:8b:70:08:cd:68:fb:36:79:
                    74:67:ed:b5:1d:50:dd:73:df:5f:ca:3b:d0:6b:83:
                    ba:5d:96:63:68:51:2a:31:f5:b0:ed:bc:09:35:88:
                    07:eb:c7:ed:0c:e6:41:19:56:ac:45:c8:5e:4a:ca:
                    03:95:e4:3b:83:b4:24:ce:21:38:24:95:91:34:a5:
                    a5:cb:98:ac:d7:00:79:a3:5c:31:0c:6a:6a:13:e2:
                    04:f8:55:9b:07:cc:d2:2e:44:56:b3:9d:af:7a:b9:
                    c7:b7:13:a5:70:44:e6:0b:b1
                Exponent: 65537 (0x10001)
        X509v3 extensions:
            X509v3 Basic Constraints: 
                CA:FALSE
            Netscape Comment: 
                OpenSSL Generated Certificate
            X509v3 Subject Key Identifier: 
                AC:F1:E5:87:5B:79:95:6B:EA:75:F2:2F:FD:EE:70:D3:53:65:A1:A0
            X509v3 Authority Key Identifier: 
                DirName:/C=KR/CN=gilgil
                serial:BC:FE:EF:E9:4A:BC:63:F0

    Signature Algorithm: sha256WithRSAEncryption
         2c:0b:15:de:5b:b9:d6:2f:50:70:85:80:8b:dd:d1:27:da:d0:
         ee:b2:11:c7:64:82:75:71:23:ad:09:87:9b:b4:e8:65:88:24:
         81:4a:42:c6:c7:14:e1:8e:5f:dc:93:db:35:2c:38:fe:7c:1b:
         7c:89:0a:8f:e2:5f:af:3c:e9:7c:96:84:01:93:6e:9d:f5:41:
         22:36:09:30:fd:ac:d4:f8:07:c4:c3:33:5c:26:33:2b:cb:f3:
         7e:b6:dd:20:a4:0e:93:7d:8f:93:8d:17:fb:60:ac:a8:56:6b:
         92:8c:a9:3e:8e:a3:d3:f5:9f:2b:ac:39:4f:58:63:66:37:53:
         18:4e
-----BEGIN CERTIFICATE-----
MIICWjCCAcOgAwIBAgIBCjANBgkqhkiG9w0BAQsFADAeMQswCQYDVQQGEwJLUjEP
MA0GA1UEAwwGZ2lsZ2lsMCIYDzIwMTQwMzAxMDAwMDAwWhgPMjAyNDAyMjcwMDAw
MDBaMCwxCzAJBgNVBAYTAktSMR0wGwYDVQQDDBR0cmFuc2xhdGUuZ29vZ2xlLmNv
bTCBnzANBgkqhkiG9w0BAQEFAAOBjQAwgYkCgYEAwgD8bDI0BQ3bcVUc/mmC49vY
L2iyi3AIzWj7Nnl0Z+21HVDdc99fyjvQa4O6XZZjaFEqMfWw7bwJNYgH68ftDOZB
GVasRcheSsoDleQ7g7QkziE4JJWRNKWly5is1wB5o1wxDGpqE+IE+FWbB8zSLkRW
s52vernHtxOlcETmC7ECAwEAAaOBlTCBkjAJBgNVHRMEAjAAMCwGCWCGSAGG+EIB
DQQfFh1PcGVuU1NMIEdlbmVyYXRlZCBDZXJ0aWZpY2F0ZTAdBgNVHQ4EFgQUrPHl
h1t5lWvqdfIv/e5w01NloaAwOAYDVR0jBDEwL6EipCAwHjELMAkGA1UEBhMCS1Ix
DzANBgNVBAMMBmdpbGdpbIIJALz+7+lKvGPwMA0GCSqGSIb3DQEBCwUAA4GBACwL
Fd5budYvUHCFgIvd0Sfa0O6yEcdkgnVxI60Jh5u06GWIJIFKQsbHFOGOX9yT2zUs
OP58G3yJCo/iX6886XyWhAGTbp31QSI2CTD9rNT4B8TDM1wmMyvL83623SCkDpN9
j5ONF/tgrKhWa5KMqT6Oo9P1nyusOU9YY2Y3UxhO
-----END CERTIFICATE-----
