-----BEGIN RSA PRIVATE KEY-----
MIICXAIBAAKBgQCYT//aVRs60DPhF8GbCdUx9UHROtOv9So3T1rReYWK1j2uxYSC
ihnm0mWQDmw2ix3kjuMDN84wpcwYKmgUe9deUQ98vKR8zR21NIvz6BzOEDCYfj+X
2O1aiSf9Imbvmbn4RfKq/yrXdVFymlgVFf0Nc8qudryeFEsQ1qJ/y6SGxwIDAQAB
AoGAfwkyZ2LWfD5NFu+effY8iBd8FsuO5dKArHMWV2KY3EyGU+/P7qTKp7dSGE2/
OdrcStZWR0fTRMX0LS+pcXQ9Etbl69AAHYjphLUlF4SMfq3rZR45COMdRyozI+zm
JaFFEresOxUHprjJXmuzPpUMT4UypnB+6o/VpZURwtpV8hkCQQDJ2+Gzkdp79q6Q
h2GmU/1D+wv9VZgLrb7/ZpvPQf7J0DAORmO9hmRC3YrE5j/sfN0bGnOgWw/Vl5oN
v585zPZTAkEAwSokTBjx3VhwDnfTtZdTLpRHsSXWsw2pkAxoaR0lHoaSzLajorBJ
QBmMLKRZ73uuRYq0DriKVxKRb0WwL1Y3PQJAQXLSlkdnIKRV6zSJ+8TlrCH8vDIB
b1/xOpwJTsTmGIcw3aAC/NNTNL7iHH9PIJ1Hj18fOFHuK2HRKD4GIVaMUwJAfHpk
w6k7i9Fm/NvZUWdAEn85p/3jWqWORKbKThqbBg3g4g08bCXAPo94FnifAEYqquPU
XrwrYis0D4nQHOEpXQJBAIyYjUaq3u+hvfh3uXQQ+Dog9uyVh7Gl/Vx62jCtbxkF
pfsmzdfud/A4kbhq8/KbcR6sYyPdXjTGFW3RMQO6l8E=
-----END RSA PRIVATE KEY-----
Certificate:
    Data:
        Version: 3 (0x2)
        Serial Number: 6 (0x6)
    Signature Algorithm: sha256WithRSAEncryption
        Issuer: C=KR, CN=gilgil
        Validity
            Not Before: Mar  1 00:00:00 2014 GMT
            Not After : Feb 27 00:00:00 2024 GMT
        Subject: C=KR, CN=update.googleapis.com
        Subject Public Key Info:
            Public Key Algorithm: rsaEncryption
                Public-Key: (1024 bit)
                Modulus:
                    00:98:4f:ff:da:55:1b:3a:d0:33:e1:17:c1:9b:09:
                    d5:31:f5:41:d1:3a:d3:af:f5:2a:37:4f:5a:d1:79:
                    85:8a:d6:3d:ae:c5:84:82:8a:19:e6:d2:65:90:0e:
                    6c:36:8b:1d:e4:8e:e3:03:37:ce:30:a5:cc:18:2a:
                    68:14:7b:d7:5e:51:0f:7c:bc:a4:7c:cd:1d:b5:34:
                    8b:f3:e8:1c:ce:10:30:98:7e:3f:97:d8:ed:5a:89:
                    27:fd:22:66:ef:99:b9:f8:45:f2:aa:ff:2a:d7:75:
                    51:72:9a:58:15:15:fd:0d:73:ca:ae:76:bc:9e:14:
                    4b:10:d6:a2:7f:cb:a4:86:c7
                Exponent: 65537 (0x10001)
        X509v3 extensions:
            X509v3 Basic Constraints: 
                CA:FALSE
            Netscape Comment: 
                OpenSSL Generated Certificate
            X509v3 Subject Key Identifier: 
                DC:61:14:21:5F:6A:41:DE:10:F7:B4:25:A7:54:6F:91:33:24:D0:F3
            X509v3 Authority Key Identifier: 
                DirName:/C=KR/CN=gilgil
                serial:BC:FE:EF:E9:4A:BC:63:F0

    Signature Algorithm: sha256WithRSAEncryption
         01:85:b7:a6:d5:80:8a:40:74:2c:db:71:c9:c7:f9:d5:2e:c8:
         20:d9:1c:b0:1f:21:ee:d2:22:4b:0d:ad:2d:a7:35:0c:45:04:
         98:76:32:05:0a:ee:39:d4:29:fd:0c:84:63:9c:8d:cf:3f:7f:
         15:be:23:64:e4:bd:95:95:31:d5:7f:73:e5:26:fa:1a:7d:bb:
         e7:7e:c2:34:be:14:bb:05:2f:67:3c:4a:d5:96:1c:cf:71:c3:
         15:0a:07:70:39:44:b6:ca:73:cd:01:bd:17:f7:8a:ee:a6:8c:
         cc:30:d4:61:6b:fa:75:83:ba:3c:12:56:99:aa:aa:6a:4f:4a:
         6b:cb
-----BEGIN CERTIFICATE-----
MIICWzCCAcSgAwIBAgIBBjANBgkqhkiG9w0BAQsFADAeMQswCQYDVQQGEwJLUjEP
MA0GA1UEAwwGZ2lsZ2lsMCIYDzIwMTQwMzAxMDAwMDAwWhgPMjAyNDAyMjcwMDAw
MDBaMC0xCzAJBgNVBAYTAktSMR4wHAYDVQQDDBV1cGRhdGUuZ29vZ2xlYXBpcy5j
b20wgZ8wDQYJKoZIhvcNAQEBBQADgY0AMIGJAoGBAJhP/9pVGzrQM+EXwZsJ1TH1
QdE606/1KjdPWtF5hYrWPa7FhIKKGebSZZAObDaLHeSO4wM3zjClzBgqaBR7115R
D3y8pHzNHbU0i/PoHM4QMJh+P5fY7VqJJ/0iZu+ZufhF8qr/Ktd1UXKaWBUV/Q1z
yq52vJ4USxDWon/LpIbHAgMBAAGjgZUwgZIwCQYDVR0TBAIwADAsBglghkgBhvhC
AQ0EHxYdT3BlblNTTCBHZW5lcmF0ZWQgQ2VydGlmaWNhdGUwHQYDVR0OBBYEFNxh
FCFfakHeEPe0JadUb5EzJNDzMDgGA1UdIwQxMC+hIqQgMB4xCzAJBgNVBAYTAktS
MQ8wDQYDVQQDDAZnaWxnaWyCCQC8/u/pSrxj8DANBgkqhkiG9w0BAQsFAAOBgQAB
hbem1YCKQHQs23HJx/nVLsgg2RywHyHu0iJLDa0tpzUMRQSYdjIFCu451Cn9DIRj
nI3PP38VviNk5L2VlTHVf3PlJvoafbvnfsI0vhS7BS9nPErVlhzPccMVCgdwOUS2
ynPNAb0X94rupozMMNRha/p1g7o8ElaZqqpqT0pryw==
-----END CERTIFICATE-----
