-----BEGIN RSA PRIVATE KEY-----
MIICXwIBAAKBgQCshwINvNEreXIf7+NqIvz3eufV83rJ8AcpmfARVvwp2wNNf+Kl
F89U5C8aL/FfYaNZLW2IVUDiwJcWTh/47bvk8zGQRcsaq1bM+E16AWQR9e7wekP+
W8QKw5BviZQ4/P2OPMyX0yAqFB2REDIktlpV+F6q0xbvknSuSkubTiCtnQIDAQAB
AoGBAKdlh1SU887e0yCxvVHqCNCG7BLnXyg4QHrY5dmtMJXb7uRvRRUyePTBQgKC
qgwFzFxme3RgY8ifXPlDbDo3UKpIdaPp4irsF0/84TTNPASRExUjBtaY/iIZbq4C
HBCDvV9OHNGHbWgNQu309PxMtHPF2/sTNRBvvHdmHpOOhmuBAkEA1krX6UoEfckE
9dF2k39Mgo1VNjxA0a30gpMA6AmuQLOVTVUw4mbbMO5M1slgIQNvfuRJuzLvz69g
79r1Tt1+xQJBAM4bN3QSVqXfFqCFYQOS7NobpK2Ko/vKlJrgpBut3OGPtINUbSfF
Pjm61xL1PDHQ1diitxcVuocmu5rMZn704PkCQQDF0bN9XWHGCFK25hVTVdl4TyYR
eg/QQIiOHUxh58XfXqh+Ch2lcpP3mJSAVseR0k0T04Qo9n2guGKBKRz5H8mNAkEA
xl9/wiIcb84G0z1NIMl7WnocyEOWjbRvz5nDmjh/TkKodXb/ELZRq/LfKwoKg9AC
413JZ1isjYSEMPvm8u7y0QJBAISgcVZNJGw6XyUu3qFEndlilvBuBwazPD0k3fww
3ekrcyTGzcjqPfPtwVI+sIzNRnJ5uKMCjPOsGPEK641UOvo=
-----END RSA PRIVATE KEY-----
Certificate:
    Data:
        Version: 3 (0x2)
        Serial Number: 2 (0x2)
    Signature Algorithm: sha256WithRSAEncryption
        Issuer: C=KR, CN=gilgil
        Validity
            Not Before: Mar  1 00:00:00 2014 GMT
            Not After : Feb 27 00:00:00 2024 GMT
        Subject: C=KR, CN=v10.vortex-win.data.microsoft.com
        Subject Public Key Info:
            Public Key Algorithm: rsaEncryption
                Public-Key: (1024 bit)
                Modulus:
                    00:ac:87:02:0d:bc:d1:2b:79:72:1f:ef:e3:6a:22:
                    fc:f7:7a:e7:d5:f3:7a:c9:f0:07:29:99:f0:11:56:
                    fc:29:db:03:4d:7f:e2:a5:17:cf:54:e4:2f:1a:2f:
                    f1:5f:61:a3:59:2d:6d:88:55:40:e2:c0:97:16:4e:
                    1f:f8:ed:bb:e4:f3:31:90:45:cb:1a:ab:56:cc:f8:
                    4d:7a:01:64:11:f5:ee:f0:7a:43:fe:5b:c4:0a:c3:
                    90:6f:89:94:38:fc:fd:8e:3c:cc:97:d3:20:2a:14:
                    1d:91:10:32:24:b6:5a:55:f8:5e:aa:d3:16:ef:92:
                    74:ae:4a:4b:9b:4e:20:ad:9d
                Exponent: 65537 (0x10001)
        X509v3 extensions:
            X509v3 Basic Constraints: 
                CA:FALSE
            Netscape Comment: 
                OpenSSL Generated Certificate
            X509v3 Subject Key Identifier: 
                7A:CE:5A:E9:A9:46:AD:9B:82:26:9B:B8:CD:46:4F:45:B9:28:C4:FC
            X509v3 Authority Key Identifier: 
                DirName:/C=KR/CN=gilgil
                serial:BC:FE:EF:E9:4A:BC:63:F0

    Signature Algorithm: sha256WithRSAEncryption
         83:28:a2:82:62:15:4c:18:11:41:00:bf:e4:37:5b:56:20:29:
         23:1d:3b:f8:7b:24:3d:93:a4:f2:8e:85:6f:ff:2a:1e:26:d9:
         41:5c:a5:65:68:d1:36:13:76:27:7b:a1:c3:0f:c0:46:19:52:
         fb:50:b1:34:73:43:c6:1e:67:dd:bb:39:f8:9d:d8:f4:4b:94:
         5c:bc:09:f3:93:86:15:c7:79:de:54:31:10:25:1e:d6:37:ef:
         cc:ec:5a:18:2e:0b:3b:18:7c:9c:17:25:5a:1b:d7:76:27:b2:
         4f:3e:f9:2e:91:e0:90:d5:fe:c9:da:b9:e4:f2:b5:4a:48:28:
         95:22
-----BEGIN CERTIFICATE-----
MIICZzCCAdCgAwIBAgIBAjANBgkqhkiG9w0BAQsFADAeMQswCQYDVQQGEwJLUjEP
MA0GA1UEAwwGZ2lsZ2lsMCIYDzIwMTQwMzAxMDAwMDAwWhgPMjAyNDAyMjcwMDAw
MDBaMDkxCzAJBgNVBAYTAktSMSowKAYDVQQDDCF2MTAudm9ydGV4LXdpbi5kYXRh
Lm1pY3Jvc29mdC5jb20wgZ8wDQYJKoZIhvcNAQEBBQADgY0AMIGJAoGBAKyHAg28
0St5ch/v42oi/Pd659XzesnwBymZ8BFW/CnbA01/4qUXz1TkLxov8V9ho1ktbYhV
QOLAlxZOH/jtu+TzMZBFyxqrVsz4TXoBZBH17vB6Q/5bxArDkG+JlDj8/Y48zJfT
ICoUHZEQMiS2WlX4XqrTFu+SdK5KS5tOIK2dAgMBAAGjgZUwgZIwCQYDVR0TBAIw
ADAsBglghkgBhvhCAQ0EHxYdT3BlblNTTCBHZW5lcmF0ZWQgQ2VydGlmaWNhdGUw
HQYDVR0OBBYEFHrOWumpRq2bgiabuM1GT0W5KMT8MDgGA1UdIwQxMC+hIqQgMB4x
CzAJBgNVBAYTAktSMQ8wDQYDVQQDDAZnaWxnaWyCCQC8/u/pSrxj8DANBgkqhkiG
9w0BAQsFAAOBgQCDKKKCYhVMGBFBAL/kN1tWICkjHTv4eyQ9k6TyjoVv/yoeJtlB
XKVlaNE2E3Yne6HDD8BGGVL7ULE0c0PGHmfduzn4ndj0S5RcvAnzk4YVx3neVDEQ
JR7WN+/M7FoYLgs7GHycFyVaG9d2J7JPPvkukeCQ1f7J2rnk8rVKSCiVIg==
-----END CERTIFICATE-----
