-----BEGIN RSA PRIVATE KEY-----
MIICXgIBAAKBgQDPDdVeLqDNcNaQEaovGpMSwHdLAZ4oR4Imqo2xsYUzJScU0IAd
d9Fs5yl5GlXZiWp/sezXmnsBH9BrNk0a6iVxe1DrmhtfnbWiZGz9zDdANtwDViR+
skgkadJclU0N0T9hb+icmMsBZiTNcaE9PA1NtSo90/0IxcIzX/5VNX2ZPQIDAQAB
AoGBAJH4o7MZVl5frbS172/z4Tn4HGHxywmEmFogJXLfvxM2nx3KfHfJ8AhB0/g/
u8R4X2+VBW9exlcdkbbz+ln+NtRMtAtMH91bMAOMVdttvdPS1VyBU9WSbnbR5vwX
o3L99D7mHWNYK/YrzGoDMTxekX7s+TfOXqpAnEFzvzpCTtPBAkEA6y1Q/wRn6O64
wp25VTCTTKten26JcKGlnvDncZ//zLzSbABmHKJYnX8vmmKfxteISM/RXE4nC5/y
0T5P4iQ2DQJBAOFjD/PoRHIKvoA1S+F2d+WoGbbY7/xXOko8fKHvm2B/GLOH+QSn
ZZpzSQk4jk971NidCqLxXKiVWDji+M/C0/ECQF87CHNbq2ANWs+j4qp2cw82zagt
sIXlTxWfY3kFWyXiyCpntvGdY9jS6cnQafawzET/sj14gCMa785/NwXRt/kCQQDN
yaNBMit8bO7vJLp5y69BUzDXUFAeeI5SRdQODzYw7xrgoR/u7eDJGsXu02KslAYN
GaYijHnruyBoIGTJXbwhAkEAymTDFT0B+RWb5wf7CXxnvO97DXjhSPxV0jjCyoab
34O0ZkHjNAsVJxwTiE748/U+lvEEZBN2p9Nj3bMflTC+fg==
-----END RSA PRIVATE KEY-----
Certificate:
    Data:
        Version: 3 (0x2)
        Serial Number: 1 (0x1)
    Signature Algorithm: sha256WithRSAEncryption
        Issuer: C=KR, CN=gilgil
        Validity
            Not Before: Mar  1 00:00:00 2014 GMT
            Not After : Feb 27 00:00:00 2024 GMT
        Subject: C=KR, CN=visualstudio-devdiv-c2s.msedge.net
        Subject Public Key Info:
            Public Key Algorithm: rsaEncryption
                Public-Key: (1024 bit)
                Modulus:
                    00:cf:0d:d5:5e:2e:a0:cd:70:d6:90:11:aa:2f:1a:
                    93:12:c0:77:4b:01:9e:28:47:82:26:aa:8d:b1:b1:
                    85:33:25:27:14:d0:80:1d:77:d1:6c:e7:29:79:1a:
                    55:d9:89:6a:7f:b1:ec:d7:9a:7b:01:1f:d0:6b:36:
                    4d:1a:ea:25:71:7b:50:eb:9a:1b:5f:9d:b5:a2:64:
                    6c:fd:cc:37:40:36:dc:03:56:24:7e:b2:48:24:69:
                    d2:5c:95:4d:0d:d1:3f:61:6f:e8:9c:98:cb:01:66:
                    24:cd:71:a1:3d:3c:0d:4d:b5:2a:3d:d3:fd:08:c5:
                    c2:33:5f:fe:55:35:7d:99:3d
                Exponent: 65537 (0x10001)
        X509v3 extensions:
            X509v3 Basic Constraints: 
                CA:FALSE
            Netscape Comment: 
                OpenSSL Generated Certificate
            X509v3 Subject Key Identifier: 
                B5:7F:51:05:28:4F:9D:C3:F4:D9:F0:7D:BE:C3:3A:6D:EB:77:88:F5
            X509v3 Authority Key Identifier: 
                DirName:/C=KR/CN=gilgil
                serial:BC:FE:EF:E9:4A:BC:63:F0

    Signature Algorithm: sha256WithRSAEncryption
         55:5d:d3:c2:b7:4d:e0:b4:c1:7c:57:ff:0e:37:35:15:48:3b:
         0f:96:9c:c4:6c:a6:8e:81:53:12:85:2f:5f:89:87:e0:6a:49:
         3d:60:5f:89:54:82:0f:de:45:f7:0f:4a:47:9f:90:97:8d:98:
         98:ae:d9:24:1f:a7:35:9e:f1:59:4d:f1:6b:6b:65:e0:e8:54:
         1d:12:0b:1f:a6:8d:cb:1d:6c:4c:1b:50:ea:cc:65:b6:67:4e:
         c5:c4:4f:98:58:02:d5:c6:dd:a4:94:49:ec:a7:9c:2f:95:4b:
         de:ff:30:9d:02:9e:1f:b7:87:42:61:fb:ce:a8:4d:54:ac:97:
         5b:88
-----BEGIN CERTIFICATE-----
MIICaDCCAdGgAwIBAgIBATANBgkqhkiG9w0BAQsFADAeMQswCQYDVQQGEwJLUjEP
MA0GA1UEAwwGZ2lsZ2lsMCIYDzIwMTQwMzAxMDAwMDAwWhgPMjAyNDAyMjcwMDAw
MDBaMDoxCzAJBgNVBAYTAktSMSswKQYDVQQDDCJ2aXN1YWxzdHVkaW8tZGV2ZGl2
LWMycy5tc2VkZ2UubmV0MIGfMA0GCSqGSIb3DQEBAQUAA4GNADCBiQKBgQDPDdVe
LqDNcNaQEaovGpMSwHdLAZ4oR4Imqo2xsYUzJScU0IAdd9Fs5yl5GlXZiWp/sezX
mnsBH9BrNk0a6iVxe1DrmhtfnbWiZGz9zDdANtwDViR+skgkadJclU0N0T9hb+ic
mMsBZiTNcaE9PA1NtSo90/0IxcIzX/5VNX2ZPQIDAQABo4GVMIGSMAkGA1UdEwQC
MAAwLAYJYIZIAYb4QgENBB8WHU9wZW5TU0wgR2VuZXJhdGVkIENlcnRpZmljYXRl
MB0GA1UdDgQWBBS1f1EFKE+dw/TZ8H2+wzpt63eI9TA4BgNVHSMEMTAvoSKkIDAe
MQswCQYDVQQGEwJLUjEPMA0GA1UEAwwGZ2lsZ2lsggkAvP7v6Uq8Y/AwDQYJKoZI
hvcNAQELBQADgYEAVV3TwrdN4LTBfFf/Djc1FUg7D5acxGymjoFTEoUvX4mH4GpJ
PWBfiVSCD95F9w9KR5+Ql42YmK7ZJB+nNZ7xWU3xa2tl4OhUHRILH6aNyx1sTBtQ
6sxltmdOxcRPmFgC1cbdpJRJ7KecL5VL3v8wnQKeH7eHQmH7zqhNVKyXW4g=
-----END CERTIFICATE-----
