-----BEGIN RSA PRIVATE KEY-----
MIICXwIBAAKBgQDUII1QElJVKx3xnv0tdYU+OnFCBY+m3l6H8mWKubvgKBo276B0
wo9AGqDTvYIT6SZfYUZG8ll5X65tgdzGCFdAFwBOtqWOVfIjA0g8r1tTtk4aItf9
KUskw23nDigsfLD/ktdHNV0EO19jaFJjwhJXvm0aplcglzZ2CW5PKykFZwIDAQAB
AoGBAMbabR5uznfAn6VtoXEIBgw7xQhbJjsLohpXBRFy48hST6DIKebKrHcvfyx/
Ln1zxuEK01KWxYGeTGmjn06VaxOWr8I0OvdIRn00WGlX3JdIEz04lflYvWUmNyQR
B9POc7W4dOIgMJmJswi1mgFoFpMo3gCW392JFMCXI6Qmq/WBAkEA/72PzWj3llcz
Cqzqf3oXFObDHxpKhnTYxtDHQ0yOkVIF/XS+rfYTV2szVpSjgBDIe8iUyYvEvl3Q
tkWqt2Da1wJBANRXqPnzFgsRxbThAHsG04ETC7GbDd0yNiuZVMMGRCMtOJH9kORD
crj/qWyvkiVngLHtq+2Pa3o7B1CkFjM15/ECQQCnlM8jmjILiS6AQ1kSma2AW8rm
mbLWMsFOXscEWalenrIgKR0+H28DLNMiXBpbtCO7wW+GNpmA6Tb4CeTZb5VXAkEA
lAY/325b8X+EKWGoqhrKGnKidj823PoB1UbgVcvqd/MwOmVfOiDiuqBPBVsnMDgE
+QRMFCEktWKs6MRaTXzIoQJBALd0s64sKU8f4FzvAzV9dBw16Yg/KvPgXhelX7Tj
kyGo4QB6K8aPumbcMASdsUgVyEpgrCqgWM/iwU56rpa6tMY=
-----END RSA PRIVATE KEY-----
Certificate:
    Data:
        Version: 3 (0x2)
        Serial Number: 5 (0x5)
    Signature Algorithm: sha256WithRSAEncryption
        Issuer: C=KR, CN=gilgil
        Validity
            Not Before: Mar  1 00:00:00 2014 GMT
            Not After : Feb 27 00:00:00 2024 GMT
        Subject: C=KR, CN=visualstudio-devdiv-c2s.msedge.net
        Subject Public Key Info:
            Public Key Algorithm: rsaEncryption
                Public-Key: (1024 bit)
                Modulus:
                    00:d4:20:8d:50:12:52:55:2b:1d:f1:9e:fd:2d:75:
                    85:3e:3a:71:42:05:8f:a6:de:5e:87:f2:65:8a:b9:
                    bb:e0:28:1a:36:ef:a0:74:c2:8f:40:1a:a0:d3:bd:
                    82:13:e9:26:5f:61:46:46:f2:59:79:5f:ae:6d:81:
                    dc:c6:08:57:40:17:00:4e:b6:a5:8e:55:f2:23:03:
                    48:3c:af:5b:53:b6:4e:1a:22:d7:fd:29:4b:24:c3:
                    6d:e7:0e:28:2c:7c:b0:ff:92:d7:47:35:5d:04:3b:
                    5f:63:68:52:63:c2:12:57:be:6d:1a:a6:57:20:97:
                    36:76:09:6e:4f:2b:29:05:67
                Exponent: 65537 (0x10001)
        X509v3 extensions:
            X509v3 Basic Constraints: 
                CA:FALSE
            Netscape Comment: 
                OpenSSL Generated Certificate
            X509v3 Subject Key Identifier: 
                69:E5:91:02:51:BE:F4:CE:C7:0B:4D:EB:CF:5F:60:91:F6:93:19:61
            X509v3 Authority Key Identifier: 
                DirName:/C=KR/CN=gilgil
                serial:BC:FE:EF:E9:4A:BC:63:F0

    Signature Algorithm: sha256WithRSAEncryption
         af:66:33:29:a7:3c:71:e5:56:91:d0:dd:d3:ea:5e:e6:68:f9:
         ea:58:1b:16:6e:e4:3e:f3:c0:ae:c6:c4:d5:27:6d:16:03:2d:
         30:1d:6e:60:2a:3f:73:f7:87:22:07:cd:7e:0d:2d:16:0b:1d:
         49:d7:54:fd:c5:cd:15:93:41:5f:96:b0:8a:4b:aa:68:a4:94:
         74:01:f5:2e:69:d9:85:ae:8c:b1:f6:f3:78:44:2e:14:c5:3e:
         9a:02:15:a4:84:06:7e:9d:fb:48:f7:ac:33:39:53:ee:10:16:
         ca:77:6f:d6:7a:86:b2:40:fe:81:b4:d7:78:43:37:72:5e:b2:
         97:5f
-----BEGIN CERTIFICATE-----
MIICaDCCAdGgAwIBAgIBBTANBgkqhkiG9w0BAQsFADAeMQswCQYDVQQGEwJLUjEP
MA0GA1UEAwwGZ2lsZ2lsMCIYDzIwMTQwMzAxMDAwMDAwWhgPMjAyNDAyMjcwMDAw
MDBaMDoxCzAJBgNVBAYTAktSMSswKQYDVQQDDCJ2aXN1YWxzdHVkaW8tZGV2ZGl2
LWMycy5tc2VkZ2UubmV0MIGfMA0GCSqGSIb3DQEBAQUAA4GNADCBiQKBgQDUII1Q
ElJVKx3xnv0tdYU+OnFCBY+m3l6H8mWKubvgKBo276B0wo9AGqDTvYIT6SZfYUZG
8ll5X65tgdzGCFdAFwBOtqWOVfIjA0g8r1tTtk4aItf9KUskw23nDigsfLD/ktdH
NV0EO19jaFJjwhJXvm0aplcglzZ2CW5PKykFZwIDAQABo4GVMIGSMAkGA1UdEwQC
MAAwLAYJYIZIAYb4QgENBB8WHU9wZW5TU0wgR2VuZXJhdGVkIENlcnRpZmljYXRl
MB0GA1UdDgQWBBRp5ZECUb70zscLTevPX2CR9pMZYTA4BgNVHSMEMTAvoSKkIDAe
MQswCQYDVQQGEwJLUjEPMA0GA1UEAwwGZ2lsZ2lsggkAvP7v6Uq8Y/AwDQYJKoZI
hvcNAQELBQADgYEAr2YzKac8ceVWkdDd0+pe5mj56lgbFm7kPvPArsbE1SdtFgMt
MB1uYCo/c/eHIgfNfg0tFgsdSddU/cXNFZNBX5awikuqaKSUdAH1LmnZha6Msfbz
eEQuFMU+mgIVpIQGfp37SPesMzlT7hAWyndv1nqGskD+gbTXeEM3cl6yl18=
-----END CERTIFICATE-----
