-----BEGIN RSA PRIVATE KEY-----
MIICWwIBAAKBgQCRpKLOePuAFkbgtOLdVN4MnlP9RPXGSeZke8Dm1iad9/jN3NFe
KGTaQemkFqU+ABlBaLENLUStUNUm60gTUrFgas8Bt1cWUTfBMzr6lQWoCX2vxjkt
bPXcXarr1ppFum7zSU5ZlWMA09gDXz8olIcmruYuWAn9SchymkiY/sWUTQIDAQAB
AoGAKhaUwewuae6GHwvG/8U1whnDFc7m452ZifJFZa//SulNKlik3Hv54STpGvU8
XXVz1vYlLDSnwxo37t5RXtwny9CXpoQWiLrDhrNqiOkgyZBLI7hC7x4/zai5qO4i
tDLHCSm76Bb6JisW8RZRrI47yllI8UNf3JGMsGl3L7KILXUCQQDBweWl9CFIs+DU
0ef9LCR4Ba6AXOWr8Amzaop16PtXLNwqZMNStRjRquNGoUR3S4FVg8aJ6PLAbccD
MEsefHUfAkEAwG3xzbSyiekj37Yu45ORNLR+ZSTH4UMVZEhjHFP9vUdc3zuHpmsr
pQ48iFayw7tSA+zrzwh0UM8KEpC9O8+9EwJAIUNbXIEr0aJn38FldVZFsIExMwI/
v6PG1pFc0d88fvvJlFGWIrXKW/xdZju7WEuTGY404GooepaeCtMYolQ1ewJAavEv
Pwk7aBWfkEapjGSIgGgHDqMASpqDmvX3ztiG3dh5Lr7gxoYs/VAKKCM2ujyyeegD
rU2fhwFpMaQq5sCu7QJADAnzrQSC8D/VKe7Gzycj0fAqPp8APu2/MBgXLimuS175
hSbCG9QutSJ6yxaKdg+2e4khndMR8lNqia3EKsnIIA==
-----END RSA PRIVATE KEY-----
Certificate:
    Data:
        Version: 3 (0x2)
        Serial Number: 3 (0x3)
    Signature Algorithm: sha256WithRSAEncryption
        Issuer: C=KR, CN=gilgil
        Validity
            Not Before: Mar  1 00:00:00 2014 GMT
            Not After : Feb 27 00:00:00 2024 GMT
        Subject: C=KR, CN=vortex.data.microsoft.com
        Subject Public Key Info:
            Public Key Algorithm: rsaEncryption
                Public-Key: (1024 bit)
                Modulus:
                    00:91:a4:a2:ce:78:fb:80:16:46:e0:b4:e2:dd:54:
                    de:0c:9e:53:fd:44:f5:c6:49:e6:64:7b:c0:e6:d6:
                    26:9d:f7:f8:cd:dc:d1:5e:28:64:da:41:e9:a4:16:
                    a5:3e:00:19:41:68:b1:0d:2d:44:ad:50:d5:26:eb:
                    48:13:52:b1:60:6a:cf:01:b7:57:16:51:37:c1:33:
                    3a:fa:95:05:a8:09:7d:af:c6:39:2d:6c:f5:dc:5d:
                    aa:eb:d6:9a:45:ba:6e:f3:49:4e:59:95:63:00:d3:
                    d8:03:5f:3f:28:94:87:26:ae:e6:2e:58:09:fd:49:
                    c8:72:9a:48:98:fe:c5:94:4d
                Exponent: 65537 (0x10001)
        X509v3 extensions:
            X509v3 Basic Constraints: 
                CA:FALSE
            Netscape Comment: 
                OpenSSL Generated Certificate
            X509v3 Subject Key Identifier: 
                95:3D:B7:4A:4A:7E:58:04:BD:BF:58:2F:99:2C:75:2E:50:12:C9:94
            X509v3 Authority Key Identifier: 
                DirName:/C=KR/CN=gilgil
                serial:BC:FE:EF:E9:4A:BC:63:F0

    Signature Algorithm: sha256WithRSAEncryption
         4e:18:5d:c3:c5:0f:98:23:ba:ee:ba:a9:6a:1e:1f:d0:27:a9:
         28:94:44:32:48:85:92:e0:36:e8:94:8d:bb:a8:a4:44:9b:6e:
         8b:12:e8:af:07:db:d7:a4:64:e1:26:c3:8d:b3:82:b7:2b:b5:
         7c:68:c0:7c:ce:bf:77:0d:5e:35:e1:72:84:6f:2d:88:cc:13:
         8e:a6:fc:69:d2:b2:21:cf:c9:9a:da:d7:14:89:f9:47:1d:04:
         4f:eb:c1:58:66:fe:a9:40:76:1d:b5:bf:18:2d:ea:66:0a:57:
         92:e2:68:3d:63:c5:9c:f0:4c:27:0d:1f:79:4c:3f:67:3d:ec:
         e4:a3
-----BEGIN CERTIFICATE-----
MIICXzCCAcigAwIBAgIBAzANBgkqhkiG9w0BAQsFADAeMQswCQYDVQQGEwJLUjEP
MA0GA1UEAwwGZ2lsZ2lsMCIYDzIwMTQwMzAxMDAwMDAwWhgPMjAyNDAyMjcwMDAw
MDBaMDExCzAJBgNVBAYTAktSMSIwIAYDVQQDDBl2b3J0ZXguZGF0YS5taWNyb3Nv
ZnQuY29tMIGfMA0GCSqGSIb3DQEBAQUAA4GNADCBiQKBgQCRpKLOePuAFkbgtOLd
VN4MnlP9RPXGSeZke8Dm1iad9/jN3NFeKGTaQemkFqU+ABlBaLENLUStUNUm60gT
UrFgas8Bt1cWUTfBMzr6lQWoCX2vxjktbPXcXarr1ppFum7zSU5ZlWMA09gDXz8o
lIcmruYuWAn9SchymkiY/sWUTQIDAQABo4GVMIGSMAkGA1UdEwQCMAAwLAYJYIZI
AYb4QgENBB8WHU9wZW5TU0wgR2VuZXJhdGVkIENlcnRpZmljYXRlMB0GA1UdDgQW
BBSVPbdKSn5YBL2/WC+ZLHUuUBLJlDA4BgNVHSMEMTAvoSKkIDAeMQswCQYDVQQG
EwJLUjEPMA0GA1UEAwwGZ2lsZ2lsggkAvP7v6Uq8Y/AwDQYJKoZIhvcNAQELBQAD
gYEAThhdw8UPmCO67rqpah4f0CepKJREMkiFkuA26JSNu6ikRJtuixLorwfb16Rk
4SbDjbOCtyu1fGjAfM6/dw1eNeFyhG8tiMwTjqb8adKyIc/JmtrXFIn5Rx0ET+vB
WGb+qUB2HbW/GC3qZgpXkuJoPWPFnPBMJw0feUw/Zz3s5KM=
-----END CERTIFICATE-----
