-----BEGIN RSA PRIVATE KEY-----
MIICWwIBAAKBgQCVXvK7UGZI3i81nlpDRYN3kZuA9VnBhFJCWcp8POFHCY/CkvhY
VyGhde8GznVIq1S1j9w0GJ32zlSno7EDzHeZgPEoMPYElUN6QwGti3eHnxTv4DaF
2hpMXmWRSmClNFUtkZeMBH+xsKEZ5duWoYJ+AZEnOfvbXb+oOaWgfvrdtQIDAQAB
AoGAVN9MYK6AT+sfPAIsG4lF+AyeJRpD07dR3i2S5iDZiDmgm9hSkC+CBnIyTNXG
wnHHghqp7lgGeZQnedGC5TuqwInQIGbXo7i4cvis+1mP0Mc3ONtnIDdzttPPXPMs
VZrhAO2iUk037/4D6VBS9QuUErzgVjnOvuNOyY76YWOn5kECQQDEGTqJ3L/x2V3J
dduGUcLBO0WCrd4rReoDJiYLzaZ3Fx8Ah48Qt5qpDjVjM3EgddjL9lfEzSkPUA0Q
TrlagvFJAkEAwv+mG6NniCX1JM8YlAl4bTcXlhXPFbB4B1yB5lXjLVZI35qqOa6Q
ENr1M1WulPbu0S99IBgvGHVD0CzQP9y1DQJAK7EbU+A1fCNcPCjgUpsg84DLSgSH
PckEDNORIowdjOc/5xRNEgJ2mTgrOQEbMYpQVZF7mMPFZD4HyxxfPAV00QJALdnT
AxivFXJnbBpOGzEG4hdcMmw6X005S/HSkYiMfHKXfAxwDlQfh/cURNfWzywpB4L1
FwDYwhWAtohzBzEsWQJAE34vx2r/QvvCeS+8Wmx/plHdZgcoTwO+jw7g39JczIZ7
Eq/lDx8TWniCKfSYrDGZc5pj4tqI/QEf8i11WeiXBQ==
-----END RSA PRIVATE KEY-----
Certificate:
    Data:
        Version: 3 (0x2)
        Serial Number: 6 (0x6)
    Signature Algorithm: sha256WithRSAEncryption
        Issuer: C=KR, CN=gilgil
        Validity
            Not Before: Mar  1 00:00:00 2014 GMT
            Not After : Feb 27 00:00:00 2024 GMT
        Subject: C=KR, CN=web.vortex.data.microsoft.com
        Subject Public Key Info:
            Public Key Algorithm: rsaEncryption
                Public-Key: (1024 bit)
                Modulus:
                    00:95:5e:f2:bb:50:66:48:de:2f:35:9e:5a:43:45:
                    83:77:91:9b:80:f5:59:c1:84:52:42:59:ca:7c:3c:
                    e1:47:09:8f:c2:92:f8:58:57:21:a1:75:ef:06:ce:
                    75:48:ab:54:b5:8f:dc:34:18:9d:f6:ce:54:a7:a3:
                    b1:03:cc:77:99:80:f1:28:30:f6:04:95:43:7a:43:
                    01:ad:8b:77:87:9f:14:ef:e0:36:85:da:1a:4c:5e:
                    65:91:4a:60:a5:34:55:2d:91:97:8c:04:7f:b1:b0:
                    a1:19:e5:db:96:a1:82:7e:01:91:27:39:fb:db:5d:
                    bf:a8:39:a5:a0:7e:fa:dd:b5
                Exponent: 65537 (0x10001)
        X509v3 extensions:
            X509v3 Basic Constraints: 
                CA:FALSE
            Netscape Comment: 
                OpenSSL Generated Certificate
            X509v3 Subject Key Identifier: 
                9C:AA:5C:00:68:43:3D:51:E0:30:88:FC:5D:7E:E3:B1:04:F5:C8:E4
            X509v3 Authority Key Identifier: 
                DirName:/C=KR/CN=gilgil
                serial:BC:FE:EF:E9:4A:BC:63:F0

    Signature Algorithm: sha256WithRSAEncryption
         7d:4b:f2:99:1c:7e:34:ca:8a:f0:16:4c:37:e5:b4:38:1a:85:
         1a:bd:c9:6f:5a:08:c5:d6:5b:4d:f1:74:42:ff:cb:67:97:89:
         19:b5:5f:fa:35:d3:34:fd:cc:0a:55:6d:0b:93:6a:90:05:9e:
         23:27:45:06:b5:67:83:bf:71:f3:8e:df:c8:37:4e:2d:51:6a:
         ea:81:2c:f6:76:21:96:6c:c4:bd:33:5e:45:06:a7:cc:c5:da:
         87:ae:73:ad:73:db:39:5f:6c:ec:9e:c4:51:2b:ac:4b:aa:70:
         a3:61:df:e3:fc:37:04:e1:3d:46:15:8d:0c:a7:5e:96:7c:cf:
         2a:8b
-----BEGIN CERTIFICATE-----
MIICYzCCAcygAwIBAgIBBjANBgkqhkiG9w0BAQsFADAeMQswCQYDVQQGEwJLUjEP
MA0GA1UEAwwGZ2lsZ2lsMCIYDzIwMTQwMzAxMDAwMDAwWhgPMjAyNDAyMjcwMDAw
MDBaMDUxCzAJBgNVBAYTAktSMSYwJAYDVQQDDB13ZWIudm9ydGV4LmRhdGEubWlj
cm9zb2Z0LmNvbTCBnzANBgkqhkiG9w0BAQEFAAOBjQAwgYkCgYEAlV7yu1BmSN4v
NZ5aQ0WDd5GbgPVZwYRSQlnKfDzhRwmPwpL4WFchoXXvBs51SKtUtY/cNBid9s5U
p6OxA8x3mYDxKDD2BJVDekMBrYt3h58U7+A2hdoaTF5lkUpgpTRVLZGXjAR/sbCh
GeXblqGCfgGRJzn7212/qDmloH763bUCAwEAAaOBlTCBkjAJBgNVHRMEAjAAMCwG
CWCGSAGG+EIBDQQfFh1PcGVuU1NMIEdlbmVyYXRlZCBDZXJ0aWZpY2F0ZTAdBgNV
HQ4EFgQUnKpcAGhDPVHgMIj8XX7jsQT1yOQwOAYDVR0jBDEwL6EipCAwHjELMAkG
A1UEBhMCS1IxDzANBgNVBAMMBmdpbGdpbIIJALz+7+lKvGPwMA0GCSqGSIb3DQEB
CwUAA4GBAH1L8pkcfjTKivAWTDfltDgahRq9yW9aCMXWW03xdEL/y2eXiRm1X/o1
0zT9zApVbQuTapAFniMnRQa1Z4O/cfOO38g3Ti1RauqBLPZ2IZZsxL0zXkUGp8zF
2oeuc61z2zlfbOyexFErrEuqcKNh3+P8NwThPUYVjQynXpZ8zyqL
-----END CERTIFICATE-----
