-----BEGIN RSA PRIVATE KEY-----
MIICXQIBAAKBgQDA7/Dns4gVcpJ/5kQlw1azZZ0h9oM7L4ndtFxtmg/sV/7q01OX
Z9kPLpVFW7haLNlo9k+HHKjUsSIj4Fc1+0LG9iGAQorxDKOtYfTBZvFWylPNYoGi
yK91wqAGcdQNHD9sQ3Nl88TXSjGVQGwSxrYPoPpw50XJmu4soCIdeLod7wIDAQAB
AoGAIMciyFpp3iru1KfMIBZFnoi+30xAE0gKRg4kPcKUvfRdLIvmgax05e1mErh4
Y2mHLhvaevvVevz07d9pMZSUTWlXo1jogohmIWH2HVeOCzD8Oybc/WQYeXY18WbJ
4OWYdwj3DKm2YJs1EM+xGuzlJEwTqD6GzBHf+a5yiz+Tk9ECQQDqivaOfpAaG5Dl
xUyZ76AmC41prH6xlXL3CsVOBQw+Q5sngxL5oajgsgHhDnvZ/m0KCgNRscvrE9NQ
FcqVysWbAkEA0paRapEyb3Vas3iihIxLv5CU4bLgSHJnoAx1ClltIOgqp9LytmCQ
dlX1ZUyy4jsr62pIGiEysUcFs6WlSg+YPQJAF7sdvUcy/2FApO70lDK5qn/KvCF2
5DLx4esWEZHTLk2a2kGZ3uYrdyirpgDYKTNkBvsCYPazYkKsQ9Mgn01X9wJBAK77
XalnLLlgkhU+0AvDZ82tnYhM0gBgz6o1r6sB06PcRlVc+0B/zIoHsviRWrKQ6FWc
4nyTyUN0+E/l/AomGyECQQDEuJcaoWQ2NJ4+vzniPefwl1+xECgySP8PgoiuGIm2
utHwfiHFyluPnPY0phomdKe/pKoCNmbdJtgNE2rgJ2ws
-----END RSA PRIVATE KEY-----
Certificate:
    Data:
        Version: 3 (0x2)
        Serial Number: 5 (0x5)
    Signature Algorithm: sha256WithRSAEncryption
        Issuer: C=KR, CN=gilgil
        Validity
            Not Before: Mar  1 00:00:00 2014 GMT
            Not After : Feb 27 00:00:00 2024 GMT
        Subject: C=KR, CN=webid.ad.daum.net
        Subject Public Key Info:
            Public Key Algorithm: rsaEncryption
                Public-Key: (1024 bit)
                Modulus:
                    00:c0:ef:f0:e7:b3:88:15:72:92:7f:e6:44:25:c3:
                    56:b3:65:9d:21:f6:83:3b:2f:89:dd:b4:5c:6d:9a:
                    0f:ec:57:fe:ea:d3:53:97:67:d9:0f:2e:95:45:5b:
                    b8:5a:2c:d9:68:f6:4f:87:1c:a8:d4:b1:22:23:e0:
                    57:35:fb:42:c6:f6:21:80:42:8a:f1:0c:a3:ad:61:
                    f4:c1:66:f1:56:ca:53:cd:62:81:a2:c8:af:75:c2:
                    a0:06:71:d4:0d:1c:3f:6c:43:73:65:f3:c4:d7:4a:
                    31:95:40:6c:12:c6:b6:0f:a0:fa:70:e7:45:c9:9a:
                    ee:2c:a0:22:1d:78:ba:1d:ef
                Exponent: 65537 (0x10001)
        X509v3 extensions:
            X509v3 Basic Constraints: 
                CA:FALSE
            Netscape Comment: 
                OpenSSL Generated Certificate
            X509v3 Subject Key Identifier: 
                0B:E9:9D:35:F6:EE:7E:83:35:05:4B:FF:92:90:54:20:70:ED:4F:C6
            X509v3 Authority Key Identifier: 
                DirName:/C=KR/CN=gilgil
                serial:BC:FE:EF:E9:4A:BC:63:F0

    Signature Algorithm: sha256WithRSAEncryption
         2a:20:84:46:89:27:a2:2a:10:4c:ca:e6:e7:43:aa:fe:44:d8:
         2e:c5:d4:85:f9:5e:09:c5:1c:b3:2f:0c:a6:e6:09:a7:43:1a:
         bb:40:16:5c:47:a1:86:10:0d:f6:e9:a9:21:7f:45:07:6f:26:
         dd:9f:e7:2b:e6:3b:b6:2b:d1:be:e1:7f:8f:44:0c:9b:04:15:
         8e:09:6b:24:38:18:a6:6a:ba:10:6d:05:22:3e:02:f2:3a:f7:
         f0:cf:7f:cb:47:5e:9a:c9:59:15:4d:7e:32:08:76:3f:1a:4e:
         45:b9:15:e2:2e:a8:5d:ec:81:41:5e:5c:d0:d8:9d:2e:11:ff:
         d3:2d
-----BEGIN CERTIFICATE-----
MIICVzCCAcCgAwIBAgIBBTANBgkqhkiG9w0BAQsFADAeMQswCQYDVQQGEwJLUjEP
MA0GA1UEAwwGZ2lsZ2lsMCIYDzIwMTQwMzAxMDAwMDAwWhgPMjAyNDAyMjcwMDAw
MDBaMCkxCzAJBgNVBAYTAktSMRowGAYDVQQDDBF3ZWJpZC5hZC5kYXVtLm5ldDCB
nzANBgkqhkiG9w0BAQEFAAOBjQAwgYkCgYEAwO/w57OIFXKSf+ZEJcNWs2WdIfaD
Oy+J3bRcbZoP7Ff+6tNTl2fZDy6VRVu4WizZaPZPhxyo1LEiI+BXNftCxvYhgEKK
8QyjrWH0wWbxVspTzWKBosivdcKgBnHUDRw/bENzZfPE10oxlUBsEsa2D6D6cOdF
yZruLKAiHXi6He8CAwEAAaOBlTCBkjAJBgNVHRMEAjAAMCwGCWCGSAGG+EIBDQQf
Fh1PcGVuU1NMIEdlbmVyYXRlZCBDZXJ0aWZpY2F0ZTAdBgNVHQ4EFgQUC+mdNfbu
foM1BUv/kpBUIHDtT8YwOAYDVR0jBDEwL6EipCAwHjELMAkGA1UEBhMCS1IxDzAN
BgNVBAMMBmdpbGdpbIIJALz+7+lKvGPwMA0GCSqGSIb3DQEBCwUAA4GBACoghEaJ
J6IqEEzK5udDqv5E2C7F1IX5XgnFHLMvDKbmCadDGrtAFlxHoYYQDfbpqSF/RQdv
Jt2f5yvmO7Yr0b7hf49EDJsEFY4JayQ4GKZquhBtBSI+AvI69/DPf8tHXprJWRVN
fjIIdj8aTkW5FeIuqF3sgUFeXNDYnS4R/9Mt
-----END CERTIFICATE-----
