-----BEGIN RSA PRIVATE KEY-----
MIICXQIBAAKBgQDGDa3EEBTy1EBYgUY+5lJOh3atLL/9Z5sD61Qcdp3mK774KtiO
YZDeDo4yU35OwFTR0sq62eukUglpLvsvyOr8PMDhMwdxnrHhAFJuiyPBy5GAYl+5
tghaczyP+L2Gbq3rLMWagzxpDZVPJBt9wJge+41k6ZTjwf+MOJmasAsCcwIDAQAB
AoGBAI0rjuKj++qitELh0qpfDef/0u3Zafg8c1g107x+KEq6f+Lw12+Vx+cgROdG
cE+99DejovHRB5AXEbIx1MXY1vU1iAz830jF1eyf0bkSxvxfSt/+M3m8E1hA1pAw
Xcg5EA+JWIiduX7Bqs+8aD/W04TlWJCmr4Z3qngQlx9nmxhBAkEA+xa9k6SupSc7
sB/e6xK2+BmJJ7jWZ/d2NI2C4qBIEJY8dDo/dDYC/2foWk2A3ghQLpiqWcLa9s2c
gjFvOCQrUQJBAMntYLil1zZbRdQUvn0iv3NRY6ztUbi5z2LqAxBFxYlUUpd82C4h
N0U47154a1kcq9frUyfF8yP9iV7LbSkVWIMCQG5TI6FH7uTqRDOzDUPEyVhh//3Q
HYU5GlslAqmJO6DuIkn/ffoV8WM/yLxE6aaliHWw5sjh8UwYM/iQuAm2+sECQQCO
IpQphTrW3Spq3Ws0hCgFES47RBV5FPnA433ij2o7f2pfjZZR6jmQdUIw2kydvkvL
wa6X2YOLOuTeIA0nlQnnAkAfDYTElxR4dq9W3mHg+e0AhkTbNkS+OHUeAYoxlX/L
eMR2cfRnl0x5IvLLdOXr52gEsqMk7V1Kdps4uK9gcKFo
-----END RSA PRIVATE KEY-----
Certificate:
    Data:
        Version: 3 (0x2)
        Serial Number: 6 (0x6)
    Signature Algorithm: sha256WithRSAEncryption
        Issuer: C=KR, CN=gilgil
        Validity
            Not Before: Mar  1 00:00:00 2014 GMT
            Not After : Feb 27 00:00:00 2024 GMT
        Subject: C=KR, CN=webid.kakao.com
        Subject Public Key Info:
            Public Key Algorithm: rsaEncryption
                Public-Key: (1024 bit)
                Modulus:
                    00:c6:0d:ad:c4:10:14:f2:d4:40:58:81:46:3e:e6:
                    52:4e:87:76:ad:2c:bf:fd:67:9b:03:eb:54:1c:76:
                    9d:e6:2b:be:f8:2a:d8:8e:61:90:de:0e:8e:32:53:
                    7e:4e:c0:54:d1:d2:ca:ba:d9:eb:a4:52:09:69:2e:
                    fb:2f:c8:ea:fc:3c:c0:e1:33:07:71:9e:b1:e1:00:
                    52:6e:8b:23:c1:cb:91:80:62:5f:b9:b6:08:5a:73:
                    3c:8f:f8:bd:86:6e:ad:eb:2c:c5:9a:83:3c:69:0d:
                    95:4f:24:1b:7d:c0:98:1e:fb:8d:64:e9:94:e3:c1:
                    ff:8c:38:99:9a:b0:0b:02:73
                Exponent: 65537 (0x10001)
        X509v3 extensions:
            X509v3 Basic Constraints: 
                CA:FALSE
            Netscape Comment: 
                OpenSSL Generated Certificate
            X509v3 Subject Key Identifier: 
                B4:2D:13:C0:CE:75:AC:15:6E:05:54:F4:9E:E6:12:57:15:F3:F6:D0
            X509v3 Authority Key Identifier: 
                DirName:/C=KR/CN=gilgil
                serial:BC:FE:EF:E9:4A:BC:63:F0

    Signature Algorithm: sha256WithRSAEncryption
         b7:aa:f0:da:db:1f:a6:77:28:53:a9:ea:44:73:72:13:e3:9a:
         52:0c:67:f5:db:a7:98:a6:06:5f:28:e7:56:ec:3c:c8:5d:a3:
         ac:23:2d:ba:10:39:0d:fe:d3:b9:c5:60:36:55:68:fa:d6:3f:
         11:77:86:e7:e5:09:23:dd:ae:42:3b:4d:ce:f9:3d:cd:e2:c7:
         da:bd:e7:ea:aa:cc:96:e3:f3:c9:68:fd:bd:ab:01:c6:09:db:
         9d:19:5b:9f:42:14:63:02:61:79:9c:c6:b9:e1:dc:94:02:16:
         42:dc:74:d5:b4:02:99:80:b7:cf:09:55:51:28:63:fa:7d:ef:
         bf:c5
-----BEGIN CERTIFICATE-----
MIICVTCCAb6gAwIBAgIBBjANBgkqhkiG9w0BAQsFADAeMQswCQYDVQQGEwJLUjEP
MA0GA1UEAwwGZ2lsZ2lsMCIYDzIwMTQwMzAxMDAwMDAwWhgPMjAyNDAyMjcwMDAw
MDBaMCcxCzAJBgNVBAYTAktSMRgwFgYDVQQDDA93ZWJpZC5rYWthby5jb20wgZ8w
DQYJKoZIhvcNAQEBBQADgY0AMIGJAoGBAMYNrcQQFPLUQFiBRj7mUk6Hdq0sv/1n
mwPrVBx2neYrvvgq2I5hkN4OjjJTfk7AVNHSyrrZ66RSCWku+y/I6vw8wOEzB3Ge
seEAUm6LI8HLkYBiX7m2CFpzPI/4vYZuressxZqDPGkNlU8kG33AmB77jWTplOPB
/4w4mZqwCwJzAgMBAAGjgZUwgZIwCQYDVR0TBAIwADAsBglghkgBhvhCAQ0EHxYd
T3BlblNTTCBHZW5lcmF0ZWQgQ2VydGlmaWNhdGUwHQYDVR0OBBYEFLQtE8DOdawV
bgVU9J7mElcV8/bQMDgGA1UdIwQxMC+hIqQgMB4xCzAJBgNVBAYTAktSMQ8wDQYD
VQQDDAZnaWxnaWyCCQC8/u/pSrxj8DANBgkqhkiG9w0BAQsFAAOBgQC3qvDa2x+m
dyhTqepEc3IT45pSDGf126eYpgZfKOdW7DzIXaOsIy26EDkN/tO5xWA2VWj61j8R
d4bn5Qkj3a5CO03O+T3N4sfavefqqsyW4/PJaP29qwHGCdudGVufQhRjAmF5nMa5
4dyUAhZC3HTVtAKZgLfPCVVRKGP6fe+/xQ==
-----END CERTIFICATE-----
