-----BEGIN RSA PRIVATE KEY-----
MIICXAIBAAKBgQC3ickJz1CWL9dAuRe1DOmgR8ep7EcDo8g0Y+PnlR6cCEtfKie9
yC/VvEi+ZtRjG55J48BvqqqdJGWy0MGXek3ZggBuHBm/yb+Fyol+7COuEvnZHDfV
K6WYmJ1UIPTHeecpdPUZpPxoS3azqrqBO17Z9w3g4NbgL1UqEadLXz4GTwIDAQAB
AoGBAJj4b+SLM6FZUlCRdB7kGjwKV3Fain2QHib8MlEryg1GJHu2iNT2alf7y61V
yyKnPDBdcGAhoH3EfjahIxj7SLHc7vMOc/hCn0zrkzb+O+8zO/sYaEAK4GCuEOsV
4LURGPNlMdGcq8Fh7pniLhpclgSAc12BjlLZCL62Ey2jmqLxAkEA3UEtAKLWtY01
GZGpVI6yieQRItQ8Pmr6pc9auExa/C8G2uUwnNKZGlV3SdLcYqlxjbqF9TbFRIAI
aXQ+iOMShQJBANRcWFZwFUzjvTuCC0upWpY4oVzkVygmHoNy+uxw6zZnz6x05/YE
59O0QDo2CDY+wLn51pvlJgcm3qRWiiOGr8MCQHHCMQFCuGJgWAztd8KiG+oJ+UWP
Gep91qGqG1rm52ECTOP/Mx9uqImBp/OtFuMje98DKB0MLCEsMycFPaHkHoECQBnL
0etGGEBL1dvZszeQrfFblbZsAm5dGw3KtNJt8RSdzatcVCUdeW/NEJRBpgO44b51
q+0qC9GIljkOTh98p/MCQHeNAeVFdMwIxWTtE1VuUi97nN/zB4CJO5ZIo3gYs0W4
7Jrp9jBSGCpVXS0TimQvGkFoRinaQQCuQYVc82Tbe5s=
-----END RSA PRIVATE KEY-----
Certificate:
    Data:
        Version: 3 (0x2)
        Serial Number: 1 (0x1)
    Signature Algorithm: sha256WithRSAEncryption
        Issuer: C=KR, CN=gilgil
        Validity
            Not Before: Mar  1 00:00:00 2014 GMT
            Not After : Feb 27 00:00:00 2024 GMT
        Subject: C=KR, CN=www.lezhin.com
        Subject Public Key Info:
            Public Key Algorithm: rsaEncryption
                Public-Key: (1024 bit)
                Modulus:
                    00:b7:89:c9:09:cf:50:96:2f:d7:40:b9:17:b5:0c:
                    e9:a0:47:c7:a9:ec:47:03:a3:c8:34:63:e3:e7:95:
                    1e:9c:08:4b:5f:2a:27:bd:c8:2f:d5:bc:48:be:66:
                    d4:63:1b:9e:49:e3:c0:6f:aa:aa:9d:24:65:b2:d0:
                    c1:97:7a:4d:d9:82:00:6e:1c:19:bf:c9:bf:85:ca:
                    89:7e:ec:23:ae:12:f9:d9:1c:37:d5:2b:a5:98:98:
                    9d:54:20:f4:c7:79:e7:29:74:f5:19:a4:fc:68:4b:
                    76:b3:aa:ba:81:3b:5e:d9:f7:0d:e0:e0:d6:e0:2f:
                    55:2a:11:a7:4b:5f:3e:06:4f
                Exponent: 65537 (0x10001)
        X509v3 extensions:
            X509v3 Basic Constraints: 
                CA:FALSE
            Netscape Comment: 
                OpenSSL Generated Certificate
            X509v3 Subject Key Identifier: 
                A5:4D:A1:4E:59:26:48:EE:2C:8F:1B:93:C6:8F:96:7A:93:2D:A7:11
            X509v3 Authority Key Identifier: 
                DirName:/C=KR/CN=gilgil
                serial:BC:FE:EF:E9:4A:BC:63:F0

    Signature Algorithm: sha256WithRSAEncryption
         bc:14:a0:e4:d8:53:97:eb:04:29:44:fb:59:bf:a0:4e:9c:ee:
         e5:b0:d9:84:7e:66:d6:8d:ce:0f:a2:53:df:88:4d:91:71:1a:
         f4:16:b2:6b:7a:cc:2c:ad:0f:df:27:7c:b4:95:1c:83:b4:b3:
         38:34:ae:a9:a6:37:ee:af:d6:ba:ce:71:fa:6b:33:40:58:2e:
         61:ad:71:b4:e8:85:87:54:c0:5d:a9:78:d6:70:34:2d:6b:72:
         c6:16:a1:35:86:0a:89:7f:45:70:3b:a9:73:75:5c:3d:57:70:
         a7:41:ff:47:14:ed:a7:fa:93:8c:68:ff:44:50:02:3a:e5:67:
         1f:ba
-----BEGIN CERTIFICATE-----
MIICVDCCAb2gAwIBAgIBATANBgkqhkiG9w0BAQsFADAeMQswCQYDVQQGEwJLUjEP
MA0GA1UEAwwGZ2lsZ2lsMCIYDzIwMTQwMzAxMDAwMDAwWhgPMjAyNDAyMjcwMDAw
MDBaMCYxCzAJBgNVBAYTAktSMRcwFQYDVQQDDA53d3cubGV6aGluLmNvbTCBnzAN
BgkqhkiG9w0BAQEFAAOBjQAwgYkCgYEAt4nJCc9Qli/XQLkXtQzpoEfHqexHA6PI
NGPj55UenAhLXyonvcgv1bxIvmbUYxueSePAb6qqnSRlstDBl3pN2YIAbhwZv8m/
hcqJfuwjrhL52Rw31SulmJidVCD0x3nnKXT1GaT8aEt2s6q6gTte2fcN4ODW4C9V
KhGnS18+Bk8CAwEAAaOBlTCBkjAJBgNVHRMEAjAAMCwGCWCGSAGG+EIBDQQfFh1P
cGVuU1NMIEdlbmVyYXRlZCBDZXJ0aWZpY2F0ZTAdBgNVHQ4EFgQUpU2hTlkmSO4s
jxuTxo+WepMtpxEwOAYDVR0jBDEwL6EipCAwHjELMAkGA1UEBhMCS1IxDzANBgNV
BAMMBmdpbGdpbIIJALz+7+lKvGPwMA0GCSqGSIb3DQEBCwUAA4GBALwUoOTYU5fr
BClE+1m/oE6c7uWw2YR+ZtaNzg+iU9+ITZFxGvQWsmt6zCytD98nfLSVHIO0szg0
rqmmN+6v1rrOcfprM0BYLmGtcbTohYdUwF2peNZwNC1rcsYWoTWGCol/RXA7qXN1
XD1XcKdB/0cU7af6k4xo/0RQAjrlZx+6
-----END CERTIFICATE-----
