-----BEGIN RSA PRIVATE KEY-----
MIICXAIBAAKBgQDZ9PpJl5ElgXms0ChZ5+rTIkiWKzhq1wO33NmT+QVnd9AR21Hz
T7LaC5Gq4e9omeC7PYn6bZGiCKbmNV4Do9V/vs5WJqbFkc7SjujqHAMi7qxsNEPb
xv2008Z+Vpv5L3Ir2r1ZykyCFvm7MSVRB0T6XxkFV5OT6rA7HsFKzZLsgwIDAQAB
AoGAaJcXWCNEgqP8GIKXKnWRCRpFjNJWs2ZUoXF4c3qnLjyfe0IstD6Fi/7LOx5K
fX6CCjgAs0zK+t99/7CSWdrPwydyFJJpAZWojLgIafGtJs5w2TEPdnbdFWBh46Rp
p54KkbVvJQZiFI/EXKRTj+C6Pnxj0qTu2XgZUhdKgLjn1mECQQD4t0syzgJcBwSu
BJB/FFWZ+6lc2IcCLKRyzlrFYWVReifZOycjDsburqfOFpAZyyldsY/etOzwVsqH
7kIpkB7zAkEA4FcSuwP6jLVMbcn798Sj5pTPjqH626lg9FhEE5+pcvkVg+51Uzeu
8snhPv67bCsZbGEwz9XRIMwNP/CGhE8AMQJBAKga+3CzXVTmSXt1ClVaYSFav/ZJ
Q7dshRoz75ZJZjnT3uss2B8R9dONqU3aYjuM3cC+KwfUMfGgN/P4Ti/ZgZECQB+b
BM+GKvlB3YemKjJo6LJmiqtMlLv3q+oguU6Oct/4yZgxsyPLN4GLAYnPd3YwyD8l
nivZssHNHZzBdSIUwzECQGdpiQf8qSZSm0S+M48K2TdNnoD2AyAe/TF3fv2D4tWi
h2hNaYTPpIK0k80lMvcbW/25kk/2XreHKm/nT68R7iI=
-----END RSA PRIVATE KEY-----
Certificate:
    Data:
        Version: 3 (0x2)
        Serial Number: 1 (0x1)
    Signature Algorithm: sha256WithRSAEncryption
        Issuer: C=KR, CN=gilgil
        Validity
            Not Before: Mar  1 00:00:00 2014 GMT
            Not After : Feb 27 00:00:00 2024 GMT
        Subject: C=KR, CN=www.google-analytics.com
        Subject Public Key Info:
            Public Key Algorithm: rsaEncryption
                Public-Key: (1024 bit)
                Modulus:
                    00:d9:f4:fa:49:97:91:25:81:79:ac:d0:28:59:e7:
                    ea:d3:22:48:96:2b:38:6a:d7:03:b7:dc:d9:93:f9:
                    05:67:77:d0:11:db:51:f3:4f:b2:da:0b:91:aa:e1:
                    ef:68:99:e0:bb:3d:89:fa:6d:91:a2:08:a6:e6:35:
                    5e:03:a3:d5:7f:be:ce:56:26:a6:c5:91:ce:d2:8e:
                    e8:ea:1c:03:22:ee:ac:6c:34:43:db:c6:fd:b4:d3:
                    c6:7e:56:9b:f9:2f:72:2b:da:bd:59:ca:4c:82:16:
                    f9:bb:31:25:51:07:44:fa:5f:19:05:57:93:93:ea:
                    b0:3b:1e:c1:4a:cd:92:ec:83
                Exponent: 65537 (0x10001)
        X509v3 extensions:
            X509v3 Basic Constraints: 
                CA:FALSE
            Netscape Comment: 
                OpenSSL Generated Certificate
            X509v3 Subject Key Identifier: 
                CE:48:AA:5C:09:21:3A:E5:62:8B:1D:5B:43:AD:26:B4:1D:22:B1:FA
            X509v3 Authority Key Identifier: 
                DirName:/C=KR/CN=gilgil
                serial:BC:FE:EF:E9:4A:BC:63:F0

    Signature Algorithm: sha256WithRSAEncryption
         0e:98:dc:64:08:b8:c1:64:6e:c5:2c:da:01:12:f0:c6:27:16:
         2d:26:f1:19:35:60:1f:b0:9f:dc:e8:9f:83:63:f0:77:ff:59:
         b4:58:ff:2a:e6:12:7b:4e:7a:99:64:dc:36:4c:09:94:09:48:
         2c:2b:79:50:b4:0f:27:3b:52:57:fd:13:be:8d:40:8a:2e:60:
         24:88:67:6e:c6:a0:c0:68:45:ff:1e:c6:5f:86:e4:a1:89:3a:
         49:0b:f8:e5:23:43:b1:40:91:eb:8c:d5:5b:56:dc:b8:a3:6b:
         5b:8b:a7:c1:fe:39:4b:f5:ca:1a:17:d7:1c:97:87:c5:07:2b:
         71:1c
-----BEGIN CERTIFICATE-----
MIICXjCCAcegAwIBAgIBATANBgkqhkiG9w0BAQsFADAeMQswCQYDVQQGEwJLUjEP
MA0GA1UEAwwGZ2lsZ2lsMCIYDzIwMTQwMzAxMDAwMDAwWhgPMjAyNDAyMjcwMDAw
MDBaMDAxCzAJBgNVBAYTAktSMSEwHwYDVQQDDBh3d3cuZ29vZ2xlLWFuYWx5dGlj
cy5jb20wgZ8wDQYJKoZIhvcNAQEBBQADgY0AMIGJAoGBANn0+kmXkSWBeazQKFnn
6tMiSJYrOGrXA7fc2ZP5BWd30BHbUfNPstoLkarh72iZ4Ls9ifptkaIIpuY1XgOj
1X++zlYmpsWRztKO6OocAyLurGw0Q9vG/bTTxn5Wm/kvcivavVnKTIIW+bsxJVEH
RPpfGQVXk5PqsDsewUrNkuyDAgMBAAGjgZUwgZIwCQYDVR0TBAIwADAsBglghkgB
hvhCAQ0EHxYdT3BlblNTTCBHZW5lcmF0ZWQgQ2VydGlmaWNhdGUwHQYDVR0OBBYE
FM5IqlwJITrlYosdW0OtJrQdIrH6MDgGA1UdIwQxMC+hIqQgMB4xCzAJBgNVBAYT
AktSMQ8wDQYDVQQDDAZnaWxnaWyCCQC8/u/pSrxj8DANBgkqhkiG9w0BAQsFAAOB
gQAOmNxkCLjBZG7FLNoBEvDGJxYtJvEZNWAfsJ/c6J+DY/B3/1m0WP8q5hJ7TnqZ
ZNw2TAmUCUgsK3lQtA8nO1JX/RO+jUCKLmAkiGduxqDAaEX/HsZfhuShiTpJC/jl
I0OxQJHrjNVbVty4o2tbi6fB/jlL9coaF9ccl4fFBytxHA==
-----END CERTIFICATE-----
