-----BEGIN RSA PRIVATE KEY-----
MIICXQIBAAKBgQCb0OstDgrC0oWtTwvoAepHUyaqYtlX1QSJKgJE1Rfu+xE9CnaY
p9olrEfg3KrUnCkqi0m8RSwtWMt28zNVnzBd5q10E3RmuwfS0DHtSNtdtfsPT0pw
mxiVoHtHbkxHbUzI4UcdJY6o4u4JA/zvdKIsiaLlOr4Pr3bmbZrCkP7DKQIDAQAB
AoGBAJKNBSTzOBvVdfVzi3dDld5PzuYi4tlBeWqpIEktQ716VtRaqwEZnowgZdqQ
sfwWhIGHUGrLhKmCApx2UaoOd6XiMj4pLJeM2RGNgYSRh+VRKsN7GksM8disyTV1
ckFjL15iMQbLYgHiAhuqTcYxzK5UPzQ96HJdB05qP5fJO6CBAkEAy9b4ZfZBitGD
nOvQmGZFzhK0kJaorXGTDAsx6H/2ErnIwI3qyS1obj2Yx0PYo/RcB5c2UMYwgp2e
S/GS/sfvDQJBAMOwCkQXT3HczrDztHuC2nfWuc+fhXKqaK+9uNR5/ZqQEfaYqkkS
nn/nGn93Zp+xb3yS393a1PPLUBlc5HISPY0CQQCA11AKoqyq4eMevK8MpRhaONiI
y7Gyb6dSZYEWREt1apjJnOpaXqkzhRucV/YHK90/rwRV6e+fn6D+v6L6B8XBAkAa
Qtat2p77vdEzKBFxfdcJvBRFi7fh8oKICyLxyMlC49C1UjmQAuKocYA52PE5vxsi
EaffYw2vBfri3Hd/43jFAkBt7MQjstjuJqCGEFdlfDqfkRq2QwXPR+jsA9tuzYVQ
w0DdTai5ZwkPt78gZQydzEhG8VEa/Bn0S3h9ZDdSnXCQ
-----END RSA PRIVATE KEY-----
Certificate:
    Data:
        Version: 3 (0x2)
        Serial Number: 1 (0x1)
    Signature Algorithm: sha256WithRSAEncryption
        Issuer: C=KR, CN=gilgil
        Validity
            Not Before: Mar  1 00:00:00 2014 GMT
            Not After : Feb 27 00:00:00 2024 GMT
        Subject: C=KR, CN=www.gstatic.com
        Subject Public Key Info:
            Public Key Algorithm: rsaEncryption
                Public-Key: (1024 bit)
                Modulus:
                    00:9b:d0:eb:2d:0e:0a:c2:d2:85:ad:4f:0b:e8:01:
                    ea:47:53:26:aa:62:d9:57:d5:04:89:2a:02:44:d5:
                    17:ee:fb:11:3d:0a:76:98:a7:da:25:ac:47:e0:dc:
                    aa:d4:9c:29:2a:8b:49:bc:45:2c:2d:58:cb:76:f3:
                    33:55:9f:30:5d:e6:ad:74:13:74:66:bb:07:d2:d0:
                    31:ed:48:db:5d:b5:fb:0f:4f:4a:70:9b:18:95:a0:
                    7b:47:6e:4c:47:6d:4c:c8:e1:47:1d:25:8e:a8:e2:
                    ee:09:03:fc:ef:74:a2:2c:89:a2:e5:3a:be:0f:af:
                    76:e6:6d:9a:c2:90:fe:c3:29
                Exponent: 65537 (0x10001)
        X509v3 extensions:
            X509v3 Basic Constraints: 
                CA:FALSE
            Netscape Comment: 
                OpenSSL Generated Certificate
            X509v3 Subject Key Identifier: 
                D9:CF:78:81:60:72:1D:1B:8B:0A:A2:9B:EE:FB:D3:6C:9D:72:F0:B9
            X509v3 Authority Key Identifier: 
                DirName:/C=KR/CN=gilgil
                serial:BC:FE:EF:E9:4A:BC:63:F0

    Signature Algorithm: sha256WithRSAEncryption
         91:4d:4d:1f:14:ff:11:24:1a:d3:cd:be:3a:ee:b7:d2:27:e8:
         a2:3c:fe:6b:c3:47:83:a6:80:9d:33:81:46:4a:0b:42:54:6d:
         be:fb:37:b3:15:64:28:f1:d0:c4:52:4a:15:a6:fa:7e:4b:28:
         1d:32:fb:ca:c0:64:97:01:f4:b9:3e:95:ee:e0:91:c3:90:9d:
         fd:56:24:e2:65:8e:27:ce:41:02:1e:8a:17:54:e8:e2:33:9a:
         37:b2:64:c6:44:59:48:8e:50:48:23:5e:dc:e0:87:02:7f:28:
         c2:f4:7d:6f:8a:3b:8d:43:e5:5f:c9:f7:f7:22:9a:34:41:07:
         e9:a7
-----BEGIN CERTIFICATE-----
MIICVTCCAb6gAwIBAgIBATANBgkqhkiG9w0BAQsFADAeMQswCQYDVQQGEwJLUjEP
MA0GA1UEAwwGZ2lsZ2lsMCIYDzIwMTQwMzAxMDAwMDAwWhgPMjAyNDAyMjcwMDAw
MDBaMCcxCzAJBgNVBAYTAktSMRgwFgYDVQQDDA93d3cuZ3N0YXRpYy5jb20wgZ8w
DQYJKoZIhvcNAQEBBQADgY0AMIGJAoGBAJvQ6y0OCsLSha1PC+gB6kdTJqpi2VfV
BIkqAkTVF+77ET0Kdpin2iWsR+DcqtScKSqLSbxFLC1Yy3bzM1WfMF3mrXQTdGa7
B9LQMe1I2121+w9PSnCbGJWge0duTEdtTMjhRx0ljqji7gkD/O90oiyJouU6vg+v
duZtmsKQ/sMpAgMBAAGjgZUwgZIwCQYDVR0TBAIwADAsBglghkgBhvhCAQ0EHxYd
T3BlblNTTCBHZW5lcmF0ZWQgQ2VydGlmaWNhdGUwHQYDVR0OBBYEFNnPeIFgch0b
iwqim+7702ydcvC5MDgGA1UdIwQxMC+hIqQgMB4xCzAJBgNVBAYTAktSMQ8wDQYD
VQQDDAZnaWxnaWyCCQC8/u/pSrxj8DANBgkqhkiG9w0BAQsFAAOBgQCRTU0fFP8R
JBrTzb467rfSJ+iiPP5rw0eDpoCdM4FGSgtCVG2++zezFWQo8dDEUkoVpvp+Sygd
MvvKwGSXAfS5PpXu4JHDkJ39ViTiZY4nzkECHooXVOjiM5o3smTGRFlIjlBII17c
4IcCfyjC9H1vijuNQ+Vfyff3Ipo0QQfppw==
-----END CERTIFICATE-----
