-----BEGIN RSA PRIVATE KEY-----
MIICWwIBAAKBgQC5OJG8UK3CWY2RYkmTqopiPRAUUsx87FuDkL9p4nav86SUeai9
ABbaaiyxaSp//Jf5ir8hLHBPKESXVS1d3PXXIYTIIPR/D5GqZvPNfmZuz04sELS3
dTWu7iXoRJGRnJUb4NYHOWZfrg51qvtpXG1sDCHR7SmKUMb2Nc8jAPxMoQIDAQAB
AoGAZf9q8eMT7OTX+um/TtwpXLP3uNln1ptqQediIXMenQJ07XaZn4r/CsRRXFln
mBeHsVngquoH5u9r5lJ3qyrVDfPNF4ZxnPg5fsAf/VkRs0R+6UDSzZTIiKDcsOwS
UUPijCz3tg2XcPlF9nv6VLN3C1f0s8D1VdSaax8+04iEyokCQQD1kIcEuZaKTqHm
cbPj2Pd4PajJ4qzoKOoh3bjT2piNuf3lwj2lGfEXn19clYdtbIkNoE52H5LOLfA2
la6laEZ7AkEAwReR6DpChcFNd2xl5IAvWuhom4A1ii7vQ2J18Wwg1hT0wetu3CTV
LmGyUYNmfwA21K7bQUqyBhtxuCnQsJU8kwJAXGhUxsxoAAfzGNr0zOsaxR6+46nv
UzYCVVgwc1ixS7QP/WQI+pY2iaMpqZeDbQQI1x3aKM1c20WiPYg6Pnhs/QJABGVY
+QR6hzkDXnilSTJx4Yvw9blRfrfa0pnnPXvMs5L+j3ugpnpgMBIhUSHAr5t9pBHn
A/GDZAgz6pFpItwC6QJAeAr/m6yZscgNRfDkGakjw9vdG3X0z1AYWlbXETvYF6H9
q3N9Fi85KeLWI3dMkqp6w3DRe1QMFmmStssnj/ND6g==
-----END RSA PRIVATE KEY-----
Certificate:
    Data:
        Version: 3 (0x2)
        Serial Number: 2 (0x2)
    Signature Algorithm: sha256WithRSAEncryption
        Issuer: C=KR, CN=gilgil
        Validity
            Not Before: Mar  1 00:00:00 2014 GMT
            Not After : Feb 27 00:00:00 2024 GMT
        Subject: C=KR, CN=www.microsoft.com
        Subject Public Key Info:
            Public Key Algorithm: rsaEncryption
                Public-Key: (1024 bit)
                Modulus:
                    00:b9:38:91:bc:50:ad:c2:59:8d:91:62:49:93:aa:
                    8a:62:3d:10:14:52:cc:7c:ec:5b:83:90:bf:69:e2:
                    76:af:f3:a4:94:79:a8:bd:00:16:da:6a:2c:b1:69:
                    2a:7f:fc:97:f9:8a:bf:21:2c:70:4f:28:44:97:55:
                    2d:5d:dc:f5:d7:21:84:c8:20:f4:7f:0f:91:aa:66:
                    f3:cd:7e:66:6e:cf:4e:2c:10:b4:b7:75:35:ae:ee:
                    25:e8:44:91:91:9c:95:1b:e0:d6:07:39:66:5f:ae:
                    0e:75:aa:fb:69:5c:6d:6c:0c:21:d1:ed:29:8a:50:
                    c6:f6:35:cf:23:00:fc:4c:a1
                Exponent: 65537 (0x10001)
        X509v3 extensions:
            X509v3 Basic Constraints: 
                CA:FALSE
            Netscape Comment: 
                OpenSSL Generated Certificate
            X509v3 Subject Key Identifier: 
                61:D6:FA:7E:F7:5C:D9:83:CD:4B:0C:28:A1:E5:E6:DC:AE:D2:3C:43
            X509v3 Authority Key Identifier: 
                DirName:/C=KR/CN=gilgil
                serial:BC:FE:EF:E9:4A:BC:63:F0

    Signature Algorithm: sha256WithRSAEncryption
         85:1d:74:3d:97:11:78:e6:92:ee:bf:bb:25:73:db:4a:7e:93:
         59:0e:2d:fb:7e:c7:af:c2:83:f3:62:80:d7:ad:23:a4:a8:fa:
         25:11:6d:e7:a4:9a:0b:94:0d:5c:ee:64:3e:72:b6:02:97:6c:
         0f:19:1e:06:73:2b:8a:c0:b1:dd:09:60:23:0b:f0:e7:fb:18:
         11:4d:13:4d:e2:f0:9e:6c:72:5f:ca:c2:04:cf:a4:33:ac:2e:
         8d:9b:e5:0f:c1:69:01:39:e3:e6:57:08:c9:74:65:3f:69:11:
         2f:99:3f:2f:29:78:eb:fe:26:f8:19:4a:db:41:c6:e6:7e:a1:
         66:e4
-----BEGIN CERTIFICATE-----
MIICVzCCAcCgAwIBAgIBAjANBgkqhkiG9w0BAQsFADAeMQswCQYDVQQGEwJLUjEP
MA0GA1UEAwwGZ2lsZ2lsMCIYDzIwMTQwMzAxMDAwMDAwWhgPMjAyNDAyMjcwMDAw
MDBaMCkxCzAJBgNVBAYTAktSMRowGAYDVQQDDBF3d3cubWljcm9zb2Z0LmNvbTCB
nzANBgkqhkiG9w0BAQEFAAOBjQAwgYkCgYEAuTiRvFCtwlmNkWJJk6qKYj0QFFLM
fOxbg5C/aeJ2r/OklHmovQAW2mossWkqf/yX+Yq/ISxwTyhEl1UtXdz11yGEyCD0
fw+RqmbzzX5mbs9OLBC0t3U1ru4l6ESRkZyVG+DWBzlmX64Odar7aVxtbAwh0e0p
ilDG9jXPIwD8TKECAwEAAaOBlTCBkjAJBgNVHRMEAjAAMCwGCWCGSAGG+EIBDQQf
Fh1PcGVuU1NMIEdlbmVyYXRlZCBDZXJ0aWZpY2F0ZTAdBgNVHQ4EFgQUYdb6fvdc
2YPNSwwooeXm3K7SPEMwOAYDVR0jBDEwL6EipCAwHjELMAkGA1UEBhMCS1IxDzAN
BgNVBAMMBmdpbGdpbIIJALz+7+lKvGPwMA0GCSqGSIb3DQEBCwUAA4GBAIUddD2X
EXjmku6/uyVz20p+k1kOLft+x6/Cg/NigNetI6So+iURbeekmguUDVzuZD5ytgKX
bA8ZHgZzK4rAsd0JYCML8Of7GBFNE03i8J5scl/KwgTPpDOsLo2b5Q/BaQE54+ZX
CMl0ZT9pES+ZPy8peOv+JvgZSttBxuZ+oWbk
-----END CERTIFICATE-----
