-----BEGIN RSA PRIVATE KEY-----
MIICXgIBAAKBgQC6azyRpdpNFFb87JXhX2kgtGJdkyYI5tJb96KEbPTs/YYuJeO8
XFHKsvQn+voNsjzqPCE+FgsRGKTch1ppfbs3z6yUPjghca7p96MqSTdyO30apIyA
RKjKfXT3D4hjAOzoOkO0am4N+GcEtYmQyXU6tTpT9RYYr1Po1xuM/24frQIDAQAB
AoGBAI6ZgVeYmwjjSjdncq9XoL9XvPb/nNSqXLflEfhisGio9n9OlIp9xENd6M68
eZMIiPhUzskDa6vEQjg/gbW4bADQebcaVha2gOe9Feq42JRzm+OXQdssEVx2HYt8
yCrRyXLh62IKAiinLOl8nNAD2fg4z9VLRexdRXU6OPlfV8YBAkEA+BxIYmjIQP3d
1NSuOpXyC2aype/4EOqEY3dkALuh3AAMRItwag67imd7QBAA+cAj9Gp3Ed3nVtzT
n47uaIvjoQJBAMBYwo3mGQIptpTWP1tvvHbXekKFUMv539nskl8y2JVZVrQPDmV1
wbRBgoGYoGoT2FZZ2cRW2qlSnA0XuR8JwI0CQQCgJLk/87wV3waZAjH3FKOnYkE7
Q/nNCWIsRXqh0no14z4H3CzR9/Jq8kImZm4Kxk8uyq1SNfXFJkHeAka16l0hAkAj
kYZQpSckvj/0H/ZRW0U3mLsUCAEb5xYc/2FF12ozm/SrkUkxO+hZA/A1NNsdIpRT
y4O4ifMfcpZG2YczFSOVAkEAp9JHkxZOEdC1pL9RNBja6PAHwgqQCo6FfPQ8wbLg
YOA7sMH/QgsSAK0IvRRVA5AFXPqMhOBfw0GfT7/LdASkYg==
-----END RSA PRIVATE KEY-----
Certificate:
    Data:
        Version: 3 (0x2)
        Serial Number: 1 (0x1)
    Signature Algorithm: sha256WithRSAEncryption
        Issuer: C=KR, CN=gilgil
        Validity
            Not Before: Mar  1 00:00:00 2014 GMT
            Not After : Feb 27 00:00:00 2024 GMT
        Subject: C=KR, CN=www.google.co.kr
        Subject Public Key Info:
            Public Key Algorithm: rsaEncryption
                Public-Key: (1024 bit)
                Modulus:
                    00:ba:6b:3c:91:a5:da:4d:14:56:fc:ec:95:e1:5f:
                    69:20:b4:62:5d:93:26:08:e6:d2:5b:f7:a2:84:6c:
                    f4:ec:fd:86:2e:25:e3:bc:5c:51:ca:b2:f4:27:fa:
                    fa:0d:b2:3c:ea:3c:21:3e:16:0b:11:18:a4:dc:87:
                    5a:69:7d:bb:37:cf:ac:94:3e:38:21:71:ae:e9:f7:
                    a3:2a:49:37:72:3b:7d:1a:a4:8c:80:44:a8:ca:7d:
                    74:f7:0f:88:63:00:ec:e8:3a:43:b4:6a:6e:0d:f8:
                    67:04:b5:89:90:c9:75:3a:b5:3a:53:f5:16:18:af:
                    53:e8:d7:1b:8c:ff:6e:1f:ad
                Exponent: 65537 (0x10001)
        X509v3 extensions:
            X509v3 Basic Constraints: 
                CA:FALSE
            Netscape Comment: 
                OpenSSL Generated Certificate
            X509v3 Subject Key Identifier: 
                0B:44:F3:EE:F5:49:69:7C:BB:B9:2D:D8:39:88:1A:D4:68:50:6A:6A
            X509v3 Authority Key Identifier: 
                DirName:/C=KR/CN=gilgil
                serial:BC:FE:EF:E9:4A:BC:63:F0

    Signature Algorithm: sha256WithRSAEncryption
         8a:2f:55:2d:bc:96:20:4e:24:4f:21:89:1c:cb:29:be:ae:14:
         5c:41:28:c1:ab:d4:09:73:5b:d5:99:04:33:52:68:0d:f2:0e:
         69:5c:df:49:ba:64:0d:6a:8b:28:3a:29:2a:0c:d7:6f:0e:20:
         cd:c3:f8:9c:9d:bd:93:6e:76:82:9d:f0:52:42:67:ee:39:81:
         1b:72:e2:ed:a6:d9:ed:8a:32:7a:17:6e:3f:24:17:7a:b7:a9:
         e3:85:0d:56:fd:4c:70:73:df:3b:6f:fb:4e:ba:e2:a9:50:28:
         21:b0:0a:7a:ac:3a:8c:99:4a:7b:67:48:55:96:29:e6:1a:aa:
         11:ec
-----BEGIN CERTIFICATE-----
MIICVjCCAb+gAwIBAgIBATANBgkqhkiG9w0BAQsFADAeMQswCQYDVQQGEwJLUjEP
MA0GA1UEAwwGZ2lsZ2lsMCIYDzIwMTQwMzAxMDAwMDAwWhgPMjAyNDAyMjcwMDAw
MDBaMCgxCzAJBgNVBAYTAktSMRkwFwYDVQQDDBB3d3cuZ29vZ2xlLmNvLmtyMIGf
MA0GCSqGSIb3DQEBAQUAA4GNADCBiQKBgQC6azyRpdpNFFb87JXhX2kgtGJdkyYI
5tJb96KEbPTs/YYuJeO8XFHKsvQn+voNsjzqPCE+FgsRGKTch1ppfbs3z6yUPjgh
ca7p96MqSTdyO30apIyARKjKfXT3D4hjAOzoOkO0am4N+GcEtYmQyXU6tTpT9RYY
r1Po1xuM/24frQIDAQABo4GVMIGSMAkGA1UdEwQCMAAwLAYJYIZIAYb4QgENBB8W
HU9wZW5TU0wgR2VuZXJhdGVkIENlcnRpZmljYXRlMB0GA1UdDgQWBBQLRPPu9Ulp
fLu5Ldg5iBrUaFBqajA4BgNVHSMEMTAvoSKkIDAeMQswCQYDVQQGEwJLUjEPMA0G
A1UEAwwGZ2lsZ2lsggkAvP7v6Uq8Y/AwDQYJKoZIhvcNAQELBQADgYEAii9VLbyW
IE4kTyGJHMspvq4UXEEowavUCXNb1ZkEM1JoDfIOaVzfSbpkDWqLKDopKgzXbw4g
zcP4nJ29k252gp3wUkJn7jmBG3Li7abZ7YoyehduPyQXerep44UNVv1McHPfO2/7
TrriqVAoIbAKeqw6jJlKe2dIVZYp5hqqEew=
-----END CERTIFICATE-----
