-----BEGIN RSA PRIVATE KEY-----
MIICXQIBAAKBgQD1BWv65DqTXawvA3XHHemFMfvoHNUPegXTY8YQldh92RFrMMJz
22AkgxIHiJF4Hlp42Pi6A/DIOZIHKoMgEhQBMECvigfV4bPZ7encsFpE/mTKHGny
AAp6K0awFRlPd6r34+P73Zze+qDPMsu+3MFPhQ2K8Bn6OF89V1xfrV/MuQIDAQAB
AoGBAI5zZoHpKrz+mtqCcnkfROLxWnlqOdzTnot12HNQCxuvldbx9DuTcWQI5/SF
S73AN+1Gh+Tt4ZEnF2UfLDj7CbE79CtBLbv1wrQD9FpgF8CGnapb99hWP5gFB8d7
oKUBWnAZdd/HGIviWhaz4o54oc4XlopMnVq56MUNW69Ihuj5AkEA/bjMkYi5Y7PA
hv1Q4Doz+kLP/D4vth4mRYDUSKvgTAIB9JXnQpO+3RwlbX0HgUe4oULZPIHmIRqN
bSOFjgS8JwJBAPc4n5lPrquCVo1d1iIpOg1ZghcEv1vWAYwy9/RPOOVikI/l6s7g
M4pBbX1hg1iETsmjTytP5WL+Hqq5chm5XB8CQBoly19MOd7ejX7b6FPTa7vk2s5i
EkSwgr0y862xmOH8avsr37Nqyoa6+dh4xCc8nvhvjTfBI1hSBjUzLfZe4o0CQQC+
GSJQJz9uzmhzh8ZSulTTUxJ/VL04htTl04Nqr0hWynXS0L6/mRLIqwrgMI1pEUPs
NNF5wpPmjPVT3glo0mmNAkBUVmj7pL5wCYwDLgmHw1JIMouHMmzqBFV5paUCDD9Z
onXuGxl2sOQECi1qIfMai3XEU/9GGBA7mWcFZjB2H5U0
-----END RSA PRIVATE KEY-----
Certificate:
    Data:
        Version: 3 (0x2)
        Serial Number: 10 (0xa)
    Signature Algorithm: sha256WithRSAEncryption
        Issuer: C=KR, CN=gilgil
        Validity
            Not Before: Mar  1 00:00:00 2014 GMT
            Not After : Feb 27 00:00:00 2024 GMT
        Subject: C=KR, CN=www.google.co.kr
        Subject Public Key Info:
            Public Key Algorithm: rsaEncryption
                Public-Key: (1024 bit)
                Modulus:
                    00:f5:05:6b:fa:e4:3a:93:5d:ac:2f:03:75:c7:1d:
                    e9:85:31:fb:e8:1c:d5:0f:7a:05:d3:63:c6:10:95:
                    d8:7d:d9:11:6b:30:c2:73:db:60:24:83:12:07:88:
                    91:78:1e:5a:78:d8:f8:ba:03:f0:c8:39:92:07:2a:
                    83:20:12:14:01:30:40:af:8a:07:d5:e1:b3:d9:ed:
                    e9:dc:b0:5a:44:fe:64:ca:1c:69:f2:00:0a:7a:2b:
                    46:b0:15:19:4f:77:aa:f7:e3:e3:fb:dd:9c:de:fa:
                    a0:cf:32:cb:be:dc:c1:4f:85:0d:8a:f0:19:fa:38:
                    5f:3d:57:5c:5f:ad:5f:cc:b9
                Exponent: 65537 (0x10001)
        X509v3 extensions:
            X509v3 Basic Constraints: 
                CA:FALSE
            Netscape Comment: 
                OpenSSL Generated Certificate
            X509v3 Subject Key Identifier: 
                AD:99:91:0F:E6:07:F9:96:46:35:3C:7D:32:D9:C1:05:CF:8D:11:A1
            X509v3 Authority Key Identifier: 
                DirName:/C=KR/CN=gilgil
                serial:BC:FE:EF:E9:4A:BC:63:F0

    Signature Algorithm: sha256WithRSAEncryption
         00:6c:8d:d0:19:57:c8:25:05:ab:1c:23:ff:28:a0:4d:2f:79:
         b1:10:3f:92:57:dc:01:8a:b4:e0:43:31:bc:e4:30:46:ea:b9:
         22:e3:e5:69:bd:e7:c9:e0:17:ca:60:d2:c5:28:d4:2c:2c:8d:
         33:98:9e:d6:27:09:3d:53:53:d6:b8:f9:9a:8d:8d:a0:ed:45:
         20:4f:a4:1c:ea:13:87:e5:16:7c:6a:d3:65:10:40:96:62:f4:
         de:87:62:9c:32:93:ef:db:a1:e6:e8:d6:2e:db:84:89:6c:f4:
         e4:8d:cb:1c:f0:c5:2d:e8:ac:25:93:a5:fb:fd:dc:bd:6b:dc:
         d4:d6
-----BEGIN CERTIFICATE-----
MIICVjCCAb+gAwIBAgIBCjANBgkqhkiG9w0BAQsFADAeMQswCQYDVQQGEwJLUjEP
MA0GA1UEAwwGZ2lsZ2lsMCIYDzIwMTQwMzAxMDAwMDAwWhgPMjAyNDAyMjcwMDAw
MDBaMCgxCzAJBgNVBAYTAktSMRkwFwYDVQQDDBB3d3cuZ29vZ2xlLmNvLmtyMIGf
MA0GCSqGSIb3DQEBAQUAA4GNADCBiQKBgQD1BWv65DqTXawvA3XHHemFMfvoHNUP
egXTY8YQldh92RFrMMJz22AkgxIHiJF4Hlp42Pi6A/DIOZIHKoMgEhQBMECvigfV
4bPZ7encsFpE/mTKHGnyAAp6K0awFRlPd6r34+P73Zze+qDPMsu+3MFPhQ2K8Bn6
OF89V1xfrV/MuQIDAQABo4GVMIGSMAkGA1UdEwQCMAAwLAYJYIZIAYb4QgENBB8W
HU9wZW5TU0wgR2VuZXJhdGVkIENlcnRpZmljYXRlMB0GA1UdDgQWBBStmZEP5gf5
lkY1PH0y2cEFz40RoTA4BgNVHSMEMTAvoSKkIDAeMQswCQYDVQQGEwJLUjEPMA0G
A1UEAwwGZ2lsZ2lsggkAvP7v6Uq8Y/AwDQYJKoZIhvcNAQELBQADgYEAAGyN0BlX
yCUFqxwj/yigTS95sRA/klfcAYq04EMxvOQwRuq5IuPlab3nyeAXymDSxSjULCyN
M5ie1icJPVNT1rj5mo2NoO1FIE+kHOoTh+UWfGrTZRBAlmL03odinDKT79uh5ujW
LtuEiWz05I3LHPDFLeisJZOl+/3cvWvc1NY=
-----END CERTIFICATE-----
