-----BEGIN RSA PRIVATE KEY-----
MIICXQIBAAKBgQC3cfFa5rBhcYTNWO92In1VdoDYXPySXI1aRRkA6MXSd8eYmo4B
iPaonrplScdkioZA1l+/G/ndrAcrwGvbBiJQR0vGRjz6Kdcg48Ic+y9nnu+pVjg3
ZinFY8fZk5YzJT+0l8mfdnA89WBC/t0+G+9qfHBwOT8XQvIAZfE4REJcsQIDAQAB
AoGAaZXKnlBzKtLk5jCPO4akbwFTLbVvpmpg7ZkhyBUyb26D0oD6xUVo+yrJDC2H
94WHul/pIh1fFsjCI9uP+LOyIVsl4tSwEbAoB0CzrqiFlMX5+XcZyevW3FFKF7QB
cib04CTaxtRgLuEqX6wCOp3lg8vzitRJzPevrvQmVlt9toUCQQDfKUzhPWRnYrH7
GSVf/ws3vEZvlb76ol5be219HTDhcKxCrcIt7rdGSpXlUo6Ik0Z5Ey337D9ID5zk
OwiLdM/3AkEA0nB+cJ4qpN+nL4wYIiIpRn2drgS9wVPWFqZI2ckHh1KETnAmcwR/
Fbz2QC3OVrhabqqBlS6mDBPMUHqrsDlelwJBAJ1l8+Op+XcyFXaVddcPfEoDcWqi
o+EDRKohlEf6ns9jORyOkbbz+DCLys3EPOP3fG1JKdMDvl6FJJOVT6GM8mECQHyr
nJzHd2gaAAgRLTL7ngxe2w1/TZO9QTZF6R7tFAK9hhiaJI07era8Lf8zo+yIZzrs
1Lw22LSK/h4nrpNGSZ0CQQCKIx/SSvG98cJnod8cHsRZ3QXtF+zb/THEGv0YElL+
xQs08rXO2lhTUhz1BZupb5BMONRiw8hOuxeWwpsaKchz
-----END RSA PRIVATE KEY-----
Certificate:
    Data:
        Version: 3 (0x2)
        Serial Number: 2 (0x2)
    Signature Algorithm: sha256WithRSAEncryption
        Issuer: C=KR, CN=gilgil
        Validity
            Not Before: Mar  1 00:00:00 2014 GMT
            Not After : Feb 27 00:00:00 2024 GMT
        Subject: C=KR, CN=www.test.com
        Subject Public Key Info:
            Public Key Algorithm: rsaEncryption
                Public-Key: (1024 bit)
                Modulus:
                    00:b7:71:f1:5a:e6:b0:61:71:84:cd:58:ef:76:22:
                    7d:55:76:80:d8:5c:fc:92:5c:8d:5a:45:19:00:e8:
                    c5:d2:77:c7:98:9a:8e:01:88:f6:a8:9e:ba:65:49:
                    c7:64:8a:86:40:d6:5f:bf:1b:f9:dd:ac:07:2b:c0:
                    6b:db:06:22:50:47:4b:c6:46:3c:fa:29:d7:20:e3:
                    c2:1c:fb:2f:67:9e:ef:a9:56:38:37:66:29:c5:63:
                    c7:d9:93:96:33:25:3f:b4:97:c9:9f:76:70:3c:f5:
                    60:42:fe:dd:3e:1b:ef:6a:7c:70:70:39:3f:17:42:
                    f2:00:65:f1:38:44:42:5c:b1
                Exponent: 65537 (0x10001)
        X509v3 extensions:
            X509v3 Basic Constraints: 
                CA:FALSE
            Netscape Comment: 
                OpenSSL Generated Certificate
            X509v3 Subject Key Identifier: 
                06:FC:FB:57:12:BE:2A:17:BC:E1:F6:26:9C:23:1F:94:89:EC:7F:9B
            X509v3 Authority Key Identifier: 
                DirName:/C=KR/CN=gilgil
                serial:BC:FE:EF:E9:4A:BC:63:F0

    Signature Algorithm: sha256WithRSAEncryption
         6a:83:a3:d3:b8:aa:4a:e6:50:ed:f1:7a:21:22:43:fb:6c:9e:
         58:58:18:32:3f:f9:03:72:3d:3b:4d:b6:79:62:77:25:ed:f2:
         5d:6f:e8:a5:8d:bc:1c:73:b1:a0:6e:9f:47:c4:56:9b:14:57:
         0d:38:5c:b2:5d:31:fa:2d:a7:f0:a1:16:85:dc:7e:fc:b1:85:
         ce:d1:69:4e:4b:aa:61:90:90:4c:9d:70:39:a9:dd:20:2d:f0:
         0f:2d:c6:a2:2a:80:0d:cf:da:f4:41:55:22:48:e4:3b:27:b6:
         cf:0e:55:88:c7:95:72:53:1b:5e:22:99:c9:a0:28:9f:c5:58:
         85:90
-----BEGIN CERTIFICATE-----
MIICUjCCAbugAwIBAgIBAjANBgkqhkiG9w0BAQsFADAeMQswCQYDVQQGEwJLUjEP
MA0GA1UEAwwGZ2lsZ2lsMCIYDzIwMTQwMzAxMDAwMDAwWhgPMjAyNDAyMjcwMDAw
MDBaMCQxCzAJBgNVBAYTAktSMRUwEwYDVQQDDAx3d3cudGVzdC5jb20wgZ8wDQYJ
KoZIhvcNAQEBBQADgY0AMIGJAoGBALdx8VrmsGFxhM1Y73YifVV2gNhc/JJcjVpF
GQDoxdJ3x5iajgGI9qieumVJx2SKhkDWX78b+d2sByvAa9sGIlBHS8ZGPPop1yDj
whz7L2ee76lWODdmKcVjx9mTljMlP7SXyZ92cDz1YEL+3T4b72p8cHA5PxdC8gBl
8ThEQlyxAgMBAAGjgZUwgZIwCQYDVR0TBAIwADAsBglghkgBhvhCAQ0EHxYdT3Bl
blNTTCBHZW5lcmF0ZWQgQ2VydGlmaWNhdGUwHQYDVR0OBBYEFAb8+1cSvioXvOH2
JpwjH5SJ7H+bMDgGA1UdIwQxMC+hIqQgMB4xCzAJBgNVBAYTAktSMQ8wDQYDVQQD
DAZnaWxnaWyCCQC8/u/pSrxj8DANBgkqhkiG9w0BAQsFAAOBgQBqg6PTuKpK5lDt
8XohIkP7bJ5YWBgyP/kDcj07TbZ5Yncl7fJdb+iljbwcc7Ggbp9HxFabFFcNOFyy
XTH6LafwoRaF3H78sYXO0WlOS6phkJBMnXA5qd0gLfAPLcaiKoANz9r0QVUiSOQ7
J7bPDlWIx5VyUxteIpnJoCifxViFkA==
-----END CERTIFICATE-----
