-----BEGIN RSA PRIVATE KEY-----
MIICXQIBAAKBgQDGOIH+Tt0gopYuT5QsdsqutBE8htpxj/Z70HKZWO9gRiPicTm6
Lv1f9yFaedWwzfnj1yUYgdWHQOMXyYq9m3QZ1BDoStQ0jQE/ny4BsoPUMRra9OrG
/ict+kQXPnwS4yltWVPNx4XMoXM+yPGxJWMNdZUQRrIYpHhN7GTebVcWawIDAQAB
AoGACjLmHVuZbRBwgbl+ejsyeoKxUFfv7V/m4r/65YD58A4r0n7Y5Yd9ae6hPLKA
GDTA4sQzGGu1vNvN029/P/o7ovFYsASWssXKmT0rQq5jW55OzAxgcrHs+pghyAhD
EKlbLqffw5V8aIPIFOQna3PpMyyKxemz7v5fGSmliGx5kmECQQDvoSYVaSh/S014
7pV8gbd3cRikpj4HqJLawgYojw4YO3WAHsULx2LHQmUvVopXVhOii3xexeOwQQoS
+380z+5tAkEA08Mqk6fUv0IDx8QkHUFtrj5hzo9PYzxdZGoQUrrXg0YIn1Mjqm9O
NAi2qMQtiV68C61gjGAoocKwNJ0kwygxNwJBAJJ4wymVNJ7SbZF87DzFoVpN9A04
XHQb81/p9w+1mZzwQztEE5fGkTdQ+z57PGZ0A954OlZHyYwDxV+jALdMXeUCQQCZ
HcY8a58GB9qp6CXgzX1b/xlDfRX/ABfbUmGpIBZSgiIb6cahJsgaEa7ZirgOWuSH
YP6toZ3fkOFNuc5qGjazAkA+FxjMzy7ZStnjz9twe51pLBCcnUV545IL9BekId4P
xYjFDpYbbN4APiaAdHwIoKZT9R8MjpyQiFx7Xl72qPIP
-----END RSA PRIVATE KEY-----
Certificate:
    Data:
        Version: 3 (0x2)
        Serial Number: 11 (0xb)
    Signature Algorithm: sha256WithRSAEncryption
        Issuer: C=KR, CN=gilgil
        Validity
            Not Before: Mar  1 00:00:00 2014 GMT
            Not After : Feb 27 00:00:00 2024 GMT
        Subject: C=KR, CN=www.google.com
        Subject Public Key Info:
            Public Key Algorithm: rsaEncryption
                Public-Key: (1024 bit)
                Modulus:
                    00:c6:38:81:fe:4e:dd:20:a2:96:2e:4f:94:2c:76:
                    ca:ae:b4:11:3c:86:da:71:8f:f6:7b:d0:72:99:58:
                    ef:60:46:23:e2:71:39:ba:2e:fd:5f:f7:21:5a:79:
                    d5:b0:cd:f9:e3:d7:25:18:81:d5:87:40:e3:17:c9:
                    8a:bd:9b:74:19:d4:10:e8:4a:d4:34:8d:01:3f:9f:
                    2e:01:b2:83:d4:31:1a:da:f4:ea:c6:fe:27:2d:fa:
                    44:17:3e:7c:12:e3:29:6d:59:53:cd:c7:85:cc:a1:
                    73:3e:c8:f1:b1:25:63:0d:75:95:10:46:b2:18:a4:
                    78:4d:ec:64:de:6d:57:16:6b
                Exponent: 65537 (0x10001)
        X509v3 extensions:
            X509v3 Basic Constraints: 
                CA:FALSE
            Netscape Comment: 
                OpenSSL Generated Certificate
            X509v3 Subject Key Identifier: 
                54:0A:5F:D1:A2:C7:F0:70:FC:F0:8E:43:2D:01:04:A8:E1:94:8F:0C
            X509v3 Authority Key Identifier: 
                DirName:/C=KR/CN=gilgil
                serial:BC:FE:EF:E9:4A:BC:63:F0

    Signature Algorithm: sha256WithRSAEncryption
         95:a8:6e:81:0f:6f:23:4c:8f:18:0b:7f:60:db:93:01:64:b9:
         85:f2:7a:10:76:62:bb:de:1e:ec:8d:78:b2:2f:62:a8:aa:36:
         44:62:ec:2b:36:e5:26:36:d2:71:02:0e:a4:35:cb:4e:28:38:
         c7:e4:48:51:61:c2:80:33:22:01:5e:52:3a:fa:ba:d5:8f:6c:
         05:e6:7e:39:d1:8d:8a:09:d9:3d:49:25:fd:70:43:a2:bc:57:
         b8:5b:ff:1b:d2:06:f5:ea:3e:7b:17:61:e0:e9:28:2b:88:65:
         72:7f:db:49:72:7d:1f:46:65:e4:14:1c:6e:fe:f3:cf:a1:05:
         90:ae
-----BEGIN CERTIFICATE-----
MIICVDCCAb2gAwIBAgIBCzANBgkqhkiG9w0BAQsFADAeMQswCQYDVQQGEwJLUjEP
MA0GA1UEAwwGZ2lsZ2lsMCIYDzIwMTQwMzAxMDAwMDAwWhgPMjAyNDAyMjcwMDAw
MDBaMCYxCzAJBgNVBAYTAktSMRcwFQYDVQQDDA53d3cuZ29vZ2xlLmNvbTCBnzAN
BgkqhkiG9w0BAQEFAAOBjQAwgYkCgYEAxjiB/k7dIKKWLk+ULHbKrrQRPIbacY/2
e9BymVjvYEYj4nE5ui79X/chWnnVsM3549clGIHVh0DjF8mKvZt0GdQQ6ErUNI0B
P58uAbKD1DEa2vTqxv4nLfpEFz58EuMpbVlTzceFzKFzPsjxsSVjDXWVEEayGKR4
Texk3m1XFmsCAwEAAaOBlTCBkjAJBgNVHRMEAjAAMCwGCWCGSAGG+EIBDQQfFh1P
cGVuU1NMIEdlbmVyYXRlZCBDZXJ0aWZpY2F0ZTAdBgNVHQ4EFgQUVApf0aLH8HD8
8I5DLQEEqOGUjwwwOAYDVR0jBDEwL6EipCAwHjELMAkGA1UEBhMCS1IxDzANBgNV
BAMMBmdpbGdpbIIJALz+7+lKvGPwMA0GCSqGSIb3DQEBCwUAA4GBAJWoboEPbyNM
jxgLf2DbkwFkuYXyehB2YrveHuyNeLIvYqiqNkRi7Cs25SY20nECDqQ1y04oOMfk
SFFhwoAzIgFeUjr6utWPbAXmfjnRjYoJ2T1JJf1wQ6K8V7hb/xvSBvXqPnsXYeDp
KCuIZXJ/20lyfR9GZeQUHG7+88+hBZCu
-----END CERTIFICATE-----
