-----BEGIN RSA PRIVATE KEY-----
MIICXQIBAAKBgQCmBSB+GRSqDV/opyn76rZv/lST0hHEC5RxpBJ49erLymFB6DIv
gU7DLrrAGHblZEcjRWtAvl9UxK2ZNwA4cJElst84twKvbD7Oao3aD8S0obEvYSEb
fAS+U1Ct8GmoxcfqPz9vjs/6xJOJdHReMNFsZaj0bRDIMbquTuUO6TSovwIDAQAB
AoGALLv27GNfsQ6XiD36zxmIfRbfvVD+Xn/sSM6394Xz9WOb30FsvGYwTeF6iqZM
6zShAn0DEFf7ogC48i7izVJvmXSmXiAkWXjrrWivCvcUA3+IY9V9dJqYBfEZcvol
c8LZPJ+ovGUhK6BKOcyIOJwarWuD5XQe7DTZ74SliXkA3zkCQQDYL/civOvySOAr
eVZ8VYJgbZrjalhXtYwsvecyZ9jLmPs7FbSoWAZW182CgOxWVbgpupnYJQKvRSkt
N7EL+tkVAkEAxJgMyesig44vtX+XxK40rreFRWdntZ3kPidwxGiRRiWa9wnDg2r4
GqsiS+OgaaKxZ4h0tG6DkRHgttlc5kgHgwJBAKWFxBDC2Vx+U7S1iHRV/CbchJTO
nak6BYNUOyoqvKDWFrUcX1/tVZ00SdM75rgLlZ/NkXEelTmhGG/YjiQAAikCQF30
cQA7QPZwiLqMLSNRQlpR2P6PadAxknhl7w3fD7bfmA0CfI8dG0/bg/uS4QI7P9/E
JkppGrXFPokEntJrkDMCQQCnpAflx+K/j6jmZ/W6HvCh+K+C+qCU8y64lWkFKLWM
RP8pMP9KexE84PaNy/bAWcWG9oDJzQGjEcmcQ0zlVpvP
-----END RSA PRIVATE KEY-----
Certificate:
    Data:
        Version: 3 (0x2)
        Serial Number: 10 (0xa)
    Signature Algorithm: sha256WithRSAEncryption
        Issuer: C=KR, CN=gilgil
        Validity
            Not Before: Mar  1 00:00:00 2014 GMT
            Not After : Feb 27 00:00:00 2024 GMT
        Subject: C=KR, CN=www.googleapis.com
        Subject Public Key Info:
            Public Key Algorithm: rsaEncryption
                Public-Key: (1024 bit)
                Modulus:
                    00:a6:05:20:7e:19:14:aa:0d:5f:e8:a7:29:fb:ea:
                    b6:6f:fe:54:93:d2:11:c4:0b:94:71:a4:12:78:f5:
                    ea:cb:ca:61:41:e8:32:2f:81:4e:c3:2e:ba:c0:18:
                    76:e5:64:47:23:45:6b:40:be:5f:54:c4:ad:99:37:
                    00:38:70:91:25:b2:df:38:b7:02:af:6c:3e:ce:6a:
                    8d:da:0f:c4:b4:a1:b1:2f:61:21:1b:7c:04:be:53:
                    50:ad:f0:69:a8:c5:c7:ea:3f:3f:6f:8e:cf:fa:c4:
                    93:89:74:74:5e:30:d1:6c:65:a8:f4:6d:10:c8:31:
                    ba:ae:4e:e5:0e:e9:34:a8:bf
                Exponent: 65537 (0x10001)
        X509v3 extensions:
            X509v3 Basic Constraints: 
                CA:FALSE
            Netscape Comment: 
                OpenSSL Generated Certificate
            X509v3 Subject Key Identifier: 
                4D:86:96:CD:35:37:93:42:37:A3:84:53:87:87:53:58:29:F2:C3:30
            X509v3 Authority Key Identifier: 
                DirName:/C=KR/CN=gilgil
                serial:BC:FE:EF:E9:4A:BC:63:F0

    Signature Algorithm: sha256WithRSAEncryption
         71:4b:4b:6f:1f:be:cf:bb:83:de:a2:2f:28:8a:3e:25:10:e7:
         ed:0a:fc:51:f9:71:0f:71:9b:7c:0d:58:88:ee:90:91:6b:6f:
         ea:fa:cb:17:a9:a4:3d:75:a2:1e:6e:4d:04:16:47:33:3c:fe:
         92:66:59:07:d8:21:28:a4:93:87:0d:31:fd:a7:50:3c:9f:26:
         e5:5c:71:e7:67:7b:4a:51:36:e2:9a:e4:e1:3a:9c:f7:4f:c3:
         b3:53:5c:06:d7:be:ef:a6:1b:3b:c4:66:7e:62:7a:15:49:5f:
         6d:a2:4b:9a:05:82:91:8d:e7:c3:79:5a:f0:61:94:87:17:bc:
         1d:b3
-----BEGIN CERTIFICATE-----
MIICWDCCAcGgAwIBAgIBCjANBgkqhkiG9w0BAQsFADAeMQswCQYDVQQGEwJLUjEP
MA0GA1UEAwwGZ2lsZ2lsMCIYDzIwMTQwMzAxMDAwMDAwWhgPMjAyNDAyMjcwMDAw
MDBaMCoxCzAJBgNVBAYTAktSMRswGQYDVQQDDBJ3d3cuZ29vZ2xlYXBpcy5jb20w
gZ8wDQYJKoZIhvcNAQEBBQADgY0AMIGJAoGBAKYFIH4ZFKoNX+inKfvqtm/+VJPS
EcQLlHGkEnj16svKYUHoMi+BTsMuusAYduVkRyNFa0C+X1TErZk3ADhwkSWy3zi3
Aq9sPs5qjdoPxLShsS9hIRt8BL5TUK3waajFx+o/P2+Oz/rEk4l0dF4w0WxlqPRt
EMgxuq5O5Q7pNKi/AgMBAAGjgZUwgZIwCQYDVR0TBAIwADAsBglghkgBhvhCAQ0E
HxYdT3BlblNTTCBHZW5lcmF0ZWQgQ2VydGlmaWNhdGUwHQYDVR0OBBYEFE2Gls01
N5NCN6OEU4eHU1gp8sMwMDgGA1UdIwQxMC+hIqQgMB4xCzAJBgNVBAYTAktSMQ8w
DQYDVQQDDAZnaWxnaWyCCQC8/u/pSrxj8DANBgkqhkiG9w0BAQsFAAOBgQBxS0tv
H77Pu4Peoi8oij4lEOftCvxR+XEPcZt8DViI7pCRa2/q+ssXqaQ9daIebk0EFkcz
PP6SZlkH2CEopJOHDTH9p1A8nyblXHHnZ3tKUTbimuThOpz3T8OzU1wG177vphs7
xGZ+YnoVSV9tokuaBYKRjefDeVrwYZSHF7wdsw==
-----END CERTIFICATE-----
