-----BEGIN RSA PRIVATE KEY-----
MIICXAIBAAKBgQDTB+vew5HMD/AX9J1bSc3Xg3F/y7PNYBiTDGc4Bc7iaj9OghdL
7E3moRaEbIQxli+KggCl0Y0SlwwzDYOg16gD6gps2vVqy3MK0o5wPF12QNT0T4eu
inDuWeNkKc/Mq7XD1dI0Ym7BembThyMvdL23XYyH2h1Wb/0GDsAwETheswIDAQAB
AoGBAMorX5O1JnsplalNhmbLaPEbkuOMgj+x3Tka+9PW9KFCik2rIahxxRu6nbjV
wTtEF12JOBejjpQNsvlB7CVuFR2VflmdupMnU7EFzyX7W7u04jjvkoRfcx8iygKo
4o3U7+GBiNIHm/8g4RnFviiWMz4xkzc6XVGjGLmko0UCEhUZAkEA6rn+DZcA6NaI
j1gjoKhdcguJQw+VgtkyLnioFzl5F+GgJR7oo5tGBjj2Sv83H7j64G42gRCSyigT
PG/OOTdLZQJBAOYoJ98PVTFYwuQ4VbDNDjQ4ggJpkwN6AiNlZT+sn3XHg5KmB59X
GyiAZXtsEco7f5KxxAjn/GyJ6LMu78oFvDcCPx5B233k+TkKbpALzIvpKCKLWiZK
2/sCBHX5F7HmtrVdYEdotJRib6Rds2H3hCOStMQ5cM0yVbm5cMFZqDu35QJAWvXx
1BFuPQN0etfc3fQcsfzHPQbWiGA26iBPpJunpdfFIzck+g9l91rPQLkUStW69JH3
BQISXB8g7XgWYsRjfwJBANB7o3PK0UaadryK8v2gAg9yaUWYELybtTHY4S9AmZy/
yYoGYtub/In/MRz5IDah6Pdcocey4v4d8clP0Hn3FdE=
-----END RSA PRIVATE KEY-----
Certificate:
    Data:
        Version: 3 (0x2)
        Serial Number: 1 (0x1)
    Signature Algorithm: sha256WithRSAEncryption
        Issuer: C=KR, CN=gilgil
        Validity
            Not Before: Mar  1 00:00:00 2014 GMT
            Not After : Feb 27 00:00:00 2024 GMT
        Subject: C=KR, CN=www.naver.com
        Subject Public Key Info:
            Public Key Algorithm: rsaEncryption
                Public-Key: (1024 bit)
                Modulus:
                    00:d3:07:eb:de:c3:91:cc:0f:f0:17:f4:9d:5b:49:
                    cd:d7:83:71:7f:cb:b3:cd:60:18:93:0c:67:38:05:
                    ce:e2:6a:3f:4e:82:17:4b:ec:4d:e6:a1:16:84:6c:
                    84:31:96:2f:8a:82:00:a5:d1:8d:12:97:0c:33:0d:
                    83:a0:d7:a8:03:ea:0a:6c:da:f5:6a:cb:73:0a:d2:
                    8e:70:3c:5d:76:40:d4:f4:4f:87:ae:8a:70:ee:59:
                    e3:64:29:cf:cc:ab:b5:c3:d5:d2:34:62:6e:c1:7a:
                    66:d3:87:23:2f:74:bd:b7:5d:8c:87:da:1d:56:6f:
                    fd:06:0e:c0:30:11:38:5e:b3
                Exponent: 65537 (0x10001)
        X509v3 extensions:
            X509v3 Basic Constraints: 
                CA:FALSE
            Netscape Comment: 
                OpenSSL Generated Certificate
            X509v3 Subject Key Identifier: 
                E7:48:26:F4:82:EC:EF:65:65:9C:22:CB:49:9F:8C:7F:81:9A:6B:D0
            X509v3 Authority Key Identifier: 
                DirName:/C=KR/CN=gilgil
                serial:BC:FE:EF:E9:4A:BC:63:F0

    Signature Algorithm: sha256WithRSAEncryption
         a2:24:0b:1c:6c:cf:a0:7e:43:dd:e4:71:17:36:95:22:b9:d2:
         96:de:61:15:3d:4e:7e:0c:cd:21:71:cf:7b:f8:ea:20:0d:f6:
         48:d6:a8:42:be:33:d1:d8:cd:32:3f:92:e1:b5:99:0d:2e:84:
         9b:1b:32:5f:c9:cf:a8:9b:9d:06:0d:b2:ae:db:ef:dd:79:07:
         10:5e:0b:84:fe:83:40:93:98:be:f5:6e:17:8c:f2:2f:3a:30:
         0f:46:94:d5:d6:2f:03:7b:ce:b1:da:dd:07:28:98:0f:71:0d:
         f4:aa:87:bf:8c:dd:bf:72:3d:d8:e2:17:9b:bc:7b:17:af:53:
         f9:e9
-----BEGIN CERTIFICATE-----
MIICUzCCAbygAwIBAgIBATANBgkqhkiG9w0BAQsFADAeMQswCQYDVQQGEwJLUjEP
MA0GA1UEAwwGZ2lsZ2lsMCIYDzIwMTQwMzAxMDAwMDAwWhgPMjAyNDAyMjcwMDAw
MDBaMCUxCzAJBgNVBAYTAktSMRYwFAYDVQQDDA13d3cubmF2ZXIuY29tMIGfMA0G
CSqGSIb3DQEBAQUAA4GNADCBiQKBgQDTB+vew5HMD/AX9J1bSc3Xg3F/y7PNYBiT
DGc4Bc7iaj9OghdL7E3moRaEbIQxli+KggCl0Y0SlwwzDYOg16gD6gps2vVqy3MK
0o5wPF12QNT0T4euinDuWeNkKc/Mq7XD1dI0Ym7BembThyMvdL23XYyH2h1Wb/0G
DsAwETheswIDAQABo4GVMIGSMAkGA1UdEwQCMAAwLAYJYIZIAYb4QgENBB8WHU9w
ZW5TU0wgR2VuZXJhdGVkIENlcnRpZmljYXRlMB0GA1UdDgQWBBTnSCb0guzvZWWc
IstJn4x/gZpr0DA4BgNVHSMEMTAvoSKkIDAeMQswCQYDVQQGEwJLUjEPMA0GA1UE
AwwGZ2lsZ2lsggkAvP7v6Uq8Y/AwDQYJKoZIhvcNAQELBQADgYEAoiQLHGzPoH5D
3eRxFzaVIrnSlt5hFT1OfgzNIXHPe/jqIA32SNaoQr4z0djNMj+S4bWZDS6Emxsy
X8nPqJudBg2yrtvv3XkHEF4LhP6DQJOYvvVuF4zyLzowD0aU1dYvA3vOsdrdByiY
D3EN9KqHv4zdv3I92OIXm7x7F69T+ek=
-----END CERTIFICATE-----
