-----BEGIN RSA PRIVATE KEY-----
MIICXAIBAAKBgQCvZkWMi4g8jPJcFIG2fZv9Y04hWpy+Q67XvcABKxI3q7pZ1C/7
m0iFOngCUS3yJMCF5GCakAF2DgCZofur+w92FoQEV/R8e5gR1SIWS6Pcf0ioG+c8
svlnWnjkXh2T1ECYytDW8MBpctlMkD029rPOMK2y9FrBbdJD2vxApWVVJQIDAQAB
AoGBAIrvL9gMDnYoDzHw7G5pQM6Ngq3Y4J+1bSFnJFfIjj2awZm2AewDLIabscPk
GcjcY8OrCvpjZ0TkAoWvUXMBA1TunC+o2qI4vgabFEdl0OwB4L1Xh2FvtTkZ0K3H
Itgr2U1Y/6la/KR8PsYuxALi+iidEa/H4elt+SugVOmEIJwBAkEA3jqFMbSe7dUP
zbJ0SphTVsOujHILg535cKeV9B1Ng4g7jGYJ1EX2CXi/OS3uvr3782S51XjHUsuu
SJo3dG1V4QJBAMoN7wI4FA8VB9Ks43uoixPc6nL9c9KnLAjHNXE3tQ/QvUHTI3UO
eZni4zLLBefjdWoC9mQIW1B4MkPpWFNcH8UCQHTcMzSLNdP9aZ0SjaK4bYK/zice
xb1FsmkyR2GikyNq3V2cPuj4jUQ30d7gr55wS3CXdD20kKSSZSjap/S6liECQD1f
3CDdbeJi7fxlfbf7Kzu+WAzTxhHPq8WC1U3tsPb73fEXtGaDHhbLX133Y3Tbl7e6
7KLYEvyvdf1A7Q5tJk0CQFfki/mwqmpEg9+MEizMDmSRPOacssnV+hkm1FDq1w7p
CBPOc05ymv1NMqzERxREoL9BEoiEfuesEBODIKOsaI4=
-----END RSA PRIVATE KEY-----
Certificate:
    Data:
        Version: 3 (0x2)
        Serial Number: 1 (0x1)
    Signature Algorithm: sha256WithRSAEncryption
        Issuer: C=KR, CN=gilgil
        Validity
            Not Before: Mar  1 00:00:00 2014 GMT
            Not After : Feb 27 00:00:00 2024 GMT
        Subject: C=KR, CN=www.naver.com
        Subject Public Key Info:
            Public Key Algorithm: rsaEncryption
                Public-Key: (1024 bit)
                Modulus:
                    00:af:66:45:8c:8b:88:3c:8c:f2:5c:14:81:b6:7d:
                    9b:fd:63:4e:21:5a:9c:be:43:ae:d7:bd:c0:01:2b:
                    12:37:ab:ba:59:d4:2f:fb:9b:48:85:3a:78:02:51:
                    2d:f2:24:c0:85:e4:60:9a:90:01:76:0e:00:99:a1:
                    fb:ab:fb:0f:76:16:84:04:57:f4:7c:7b:98:11:d5:
                    22:16:4b:a3:dc:7f:48:a8:1b:e7:3c:b2:f9:67:5a:
                    78:e4:5e:1d:93:d4:40:98:ca:d0:d6:f0:c0:69:72:
                    d9:4c:90:3d:36:f6:b3:ce:30:ad:b2:f4:5a:c1:6d:
                    d2:43:da:fc:40:a5:65:55:25
                Exponent: 65537 (0x10001)
        X509v3 extensions:
            X509v3 Basic Constraints: 
                CA:FALSE
            Netscape Comment: 
                OpenSSL Generated Certificate
            X509v3 Subject Key Identifier: 
                01:04:35:E2:F4:CF:41:5D:FC:FC:75:2A:0B:FA:6A:95:BE:5F:7B:30
            X509v3 Authority Key Identifier: 
                DirName:/C=KR/CN=gilgil
                serial:BC:FE:EF:E9:4A:BC:63:F0

    Signature Algorithm: sha256WithRSAEncryption
         b1:b1:e3:89:6e:a2:0e:3c:f3:d5:b7:0f:16:a2:b3:2c:97:f8:
         da:47:59:99:48:9a:85:fb:dc:19:27:9a:85:88:ac:d6:55:0c:
         fc:77:18:f3:7b:3a:a4:e1:e9:a4:7d:10:f0:32:2e:56:57:fc:
         ff:8b:f4:31:6f:e8:b3:59:72:0f:83:79:f4:43:70:29:f2:ea:
         36:94:26:04:06:9f:22:fe:89:3d:68:71:9a:8c:21:81:62:67:
         4a:10:a4:fb:9a:4c:37:c2:ad:34:71:d5:28:45:ca:cc:33:48:
         7d:f7:ac:1f:00:18:ac:b9:c2:39:09:dc:d6:4b:3a:a1:88:cc:
         9b:8f
-----BEGIN CERTIFICATE-----
MIICUzCCAbygAwIBAgIBATANBgkqhkiG9w0BAQsFADAeMQswCQYDVQQGEwJLUjEP
MA0GA1UEAwwGZ2lsZ2lsMCIYDzIwMTQwMzAxMDAwMDAwWhgPMjAyNDAyMjcwMDAw
MDBaMCUxCzAJBgNVBAYTAktSMRYwFAYDVQQDDA13d3cubmF2ZXIuY29tMIGfMA0G
CSqGSIb3DQEBAQUAA4GNADCBiQKBgQCvZkWMi4g8jPJcFIG2fZv9Y04hWpy+Q67X
vcABKxI3q7pZ1C/7m0iFOngCUS3yJMCF5GCakAF2DgCZofur+w92FoQEV/R8e5gR
1SIWS6Pcf0ioG+c8svlnWnjkXh2T1ECYytDW8MBpctlMkD029rPOMK2y9FrBbdJD
2vxApWVVJQIDAQABo4GVMIGSMAkGA1UdEwQCMAAwLAYJYIZIAYb4QgENBB8WHU9w
ZW5TU0wgR2VuZXJhdGVkIENlcnRpZmljYXRlMB0GA1UdDgQWBBQBBDXi9M9BXfz8
dSoL+mqVvl97MDA4BgNVHSMEMTAvoSKkIDAeMQswCQYDVQQGEwJLUjEPMA0GA1UE
AwwGZ2lsZ2lsggkAvP7v6Uq8Y/AwDQYJKoZIhvcNAQELBQADgYEAsbHjiW6iDjzz
1bcPFqKzLJf42kdZmUiahfvcGSeahYis1lUM/HcY83s6pOHppH0Q8DIuVlf8/4v0
MW/os1lyD4N59ENwKfLqNpQmBAafIv6JPWhxmowhgWJnShCk+5pMN8KtNHHVKEXK
zDNIffesHwAYrLnCOQnc1ks6oYjMm48=
-----END CERTIFICATE-----
