-----BEGIN RSA PRIVATE KEY-----
MIICXAIBAAKBgQDmqfZFemkm77W+dHvx9ah2mQGGXfoz4FTDxN+nJ9G9uYG7pb2f
oVe+lBZYUvGId1bSkyPnDWlxKmfX+Ml2YdSwiKWqHVKpaDkscyCta6TRwArPzhv9
kf9j4t+/75SeRSxkazxBN8XSBO9fEeN1M1nnqeoXLASeeR0Qt/6tnMXLuwIDAQAB
AoGAGtgO1Bkh4akmAos13XvUZjD6T3PiaWUjGEFyMdbdfvH22iq4vboeJwy+6PqG
J3aUAR+knwAdlFD2EtleQMuz37r972K54IMM9s6DqEIm1hQxs7KZKcZvmF6RcFYs
0NUNQd+/Frth0zsAnWk550fTxk0PGwQzzFVZFNDXXtKflBkCQQD8Lr27SHy8Sg3b
oyXzRygwawnQduOipJ8y6AyUWoW6j4wa2cSqJ3Oc+Qi5SRVC3uqEBglvQBh6WsJv
L83jZzdNAkEA6ifU5hvsIOzxS+uHegHjU0ga95ufmqhghibuAd8zogEju/7IU7vi
qGmEtGSFAQ9GSqoVnWQBk5J4YKIK2vRbJwJAc78AVnVuyv0yXx0CziZay95VItlu
obftWfAn1e+2cWpxY+GP4ok5B1NGLcTdfVPTT8V1jxpcIcyGcYH/feBiAQJAZjdn
H+B2jtUAbNTvehpS4ysp4odEAB6arFVYNub5wjHfKJULXEo7oqsVbC4pRZImbDed
YeyjJ4mcFQsH1BcxpwJBAPQ8ApM5EOr1tUWwJgw+2hgk802xRUU4hNSS6gMAOBcl
Bcq0oH+JD/+N3dRMNbg4pTlbsvIYgb36WmHbsDv8cJ4=
-----END RSA PRIVATE KEY-----
Certificate:
    Data:
        Version: 3 (0x2)
        Serial Number: 5 (0x5)
    Signature Algorithm: sha256WithRSAEncryption
        Issuer: C=KR, CN=gilgil
        Validity
            Not Before: Mar  1 00:00:00 2014 GMT
            Not After : Feb 27 00:00:00 2024 GMT
        Subject: C=KR, CN=www.daum.net
        Subject Public Key Info:
            Public Key Algorithm: rsaEncryption
                Public-Key: (1024 bit)
                Modulus:
                    00:e6:a9:f6:45:7a:69:26:ef:b5:be:74:7b:f1:f5:
                    a8:76:99:01:86:5d:fa:33:e0:54:c3:c4:df:a7:27:
                    d1:bd:b9:81:bb:a5:bd:9f:a1:57:be:94:16:58:52:
                    f1:88:77:56:d2:93:23:e7:0d:69:71:2a:67:d7:f8:
                    c9:76:61:d4:b0:88:a5:aa:1d:52:a9:68:39:2c:73:
                    20:ad:6b:a4:d1:c0:0a:cf:ce:1b:fd:91:ff:63:e2:
                    df:bf:ef:94:9e:45:2c:64:6b:3c:41:37:c5:d2:04:
                    ef:5f:11:e3:75:33:59:e7:a9:ea:17:2c:04:9e:79:
                    1d:10:b7:fe:ad:9c:c5:cb:bb
                Exponent: 65537 (0x10001)
        X509v3 extensions:
            X509v3 Basic Constraints: 
                CA:FALSE
            Netscape Comment: 
                OpenSSL Generated Certificate
            X509v3 Subject Key Identifier: 
                0A:18:40:32:C3:E6:64:75:FF:68:5D:70:2F:49:60:39:3C:4E:A4:2D
            X509v3 Authority Key Identifier: 
                DirName:/C=KR/CN=gilgil
                serial:BC:FE:EF:E9:4A:BC:63:F0

    Signature Algorithm: sha256WithRSAEncryption
         7d:0a:66:5c:ce:95:5c:b5:a2:cd:94:67:05:d6:63:11:5c:6d:
         2d:3c:c4:5a:25:24:66:b3:e2:b2:ae:ee:8d:13:14:0f:dd:88:
         88:1a:41:b3:4d:ca:bf:a8:d8:ae:39:8c:27:9b:c6:9c:eb:23:
         7a:43:59:e0:24:11:ec:e7:d9:ed:6f:84:a0:3c:9c:6e:30:ea:
         86:2b:11:65:6a:8c:ef:4e:0f:b2:46:ef:95:fe:af:5f:32:60:
         de:fd:ae:cd:56:2e:83:b4:d1:6b:5e:af:0b:6c:b7:76:88:fd:
         8c:9b:fe:03:58:a1:3c:81:ec:bd:1b:d5:4c:91:93:9a:6b:5b:
         4c:d4
-----BEGIN CERTIFICATE-----
MIICUjCCAbugAwIBAgIBBTANBgkqhkiG9w0BAQsFADAeMQswCQYDVQQGEwJLUjEP
MA0GA1UEAwwGZ2lsZ2lsMCIYDzIwMTQwMzAxMDAwMDAwWhgPMjAyNDAyMjcwMDAw
MDBaMCQxCzAJBgNVBAYTAktSMRUwEwYDVQQDDAx3d3cuZGF1bS5uZXQwgZ8wDQYJ
KoZIhvcNAQEBBQADgY0AMIGJAoGBAOap9kV6aSbvtb50e/H1qHaZAYZd+jPgVMPE
36cn0b25gbulvZ+hV76UFlhS8Yh3VtKTI+cNaXEqZ9f4yXZh1LCIpaodUqloOSxz
IK1rpNHACs/OG/2R/2Pi37/vlJ5FLGRrPEE3xdIE718R43UzWeep6hcsBJ55HRC3
/q2cxcu7AgMBAAGjgZUwgZIwCQYDVR0TBAIwADAsBglghkgBhvhCAQ0EHxYdT3Bl
blNTTCBHZW5lcmF0ZWQgQ2VydGlmaWNhdGUwHQYDVR0OBBYEFAoYQDLD5mR1/2hd
cC9JYDk8TqQtMDgGA1UdIwQxMC+hIqQgMB4xCzAJBgNVBAYTAktSMQ8wDQYDVQQD
DAZnaWxnaWyCCQC8/u/pSrxj8DANBgkqhkiG9w0BAQsFAAOBgQB9CmZczpVctaLN
lGcF1mMRXG0tPMRaJSRms+Kyru6NExQP3YiIGkGzTcq/qNiuOYwnm8ac6yN6Q1ng
JBHs59ntb4SgPJxuMOqGKxFlaozvTg+yRu+V/q9fMmDe/a7NVi6DtNFrXq8LbLd2
iP2Mm/4DWKE8gey9G9VMkZOaa1tM1A==
-----END CERTIFICATE-----
